; generated by Component: ARM Compiler 5.06 update 2 (build 183) Tool: ArmCC [4d35cd]
; commandline ArmCC [--list --debug -c --asm --interleave -o.\discovery\stm32f4_discovery_lcd.o --asm_dir=.\Discovery\ --list_dir=.\Discovery\ --depend=.\discovery\stm32f4_discovery_lcd.d --cpu=Cortex-M4.fp --apcs=interwork -O0 --diag_suppress=9931 -I..\inc -I..\src -I..\..\libraries\CMSIS\Include -I..\..\libraries\CMSIS\Device\ST\STM32F4xx\Include -I..\..\libraries\STM32F4x7_ETH_Driver\inc -I..\..\libraries\STM32F4xx_StdPeriph_Driver\inc -I..\..\libraries\STM32F4-Discovery -I..\..\libraries\lwip-1.4.1\port\STM32F4x7 -I..\..\libraries\lwip-1.4.1\src\include -I..\..\libraries\lwip-1.4.1\src\include\ipv4 -I..\..\libraries\lwip-1.4.1\src\include\lwip -I..\..\libraries\lwip-1.4.1\src\include\netif -I..\..\libraries\lwip-1.4.1\port\STM32F4x7\arch -I..\..\libraries\rtx-v4.73\INC -I..\..\libraries\rtx-v4.73\SRC -I..\..\libraries\ptpd-2.0.0\src -I..\inc\system -I..\inc\laser -I..\inc\motorCtrl -I..\..\libraries\lwip-1.4.1\src\include\ipv4\lwip -Id:\Keil_v5\ARM\RV31\INC -Id:\Keil_v5\ARM\CMSIS\Include -Id:\Keil_v5\ARM\Inc\ST\STM32F4xx -D__MICROLIB -D__UVISION_VERSION=520 -DSTM32F40_41xxx -DUSE_STDPERIPH_DRIVER -D__CORTEX_M4F -D__FPU_PRESENT -D__CMSIS_RTOS -DSTM32F40_41xxx --omf_browse=.\discovery\stm32f4_discovery_lcd.crf ..\..\libraries\STM32F4-Discovery\stm32f4_discovery_lcd.c]
                          THUMB

                          AREA ||.text||, CODE, READONLY, ALIGN=2

                  LCD_DisplayOff PROC
;;;610      */
;;;611    void LCD_DisplayOff(void)
000000  4770              BX       lr
;;;612    {
;;;613    
;;;614    }
;;;615    
                          ENDP

                  LCD_DeInit PROC
;;;125      */
;;;126    void LCD_DeInit(void)
000002  b51c              PUSH     {r2-r4,lr}
;;;127    { 
;;;128      GPIO_InitTypeDef GPIO_InitStructure;
;;;129    
;;;130      /*!< LCD Display Off */
;;;131      LCD_DisplayOff();
000004  f7fffffe          BL       LCD_DisplayOff
;;;132    
;;;133      /* BANK 3 (of NOR/SRAM Bank 1~4) is disabled */
;;;134      FSMC_NORSRAMCmd(FSMC_Bank1_NORSRAM3, ENABLE);
000008  2101              MOVS     r1,#1
00000a  2004              MOVS     r0,#4
00000c  f7fffffe          BL       FSMC_NORSRAMCmd
;;;135      
;;;136      /*!< LCD_SPI DeInit */
;;;137      FSMC_NORSRAMDeInit(FSMC_Bank1_NORSRAM3);
000010  2004              MOVS     r0,#4
000012  f7fffffe          BL       FSMC_NORSRAMDeInit
;;;138       
;;;139    /*-- GPIO Configuration ------------------------------------------------------*/
;;;140      /* SRAM Data lines configuration */
;;;141      GPIO_InitStructure.GPIO_Pin = GPIO_Pin_0 | GPIO_Pin_1 | GPIO_Pin_8 | GPIO_Pin_9 |
000016  f24c7003          MOV      r0,#0xc703
00001a  9000              STR      r0,[sp,#0]
;;;142                                    GPIO_Pin_10 | GPIO_Pin_14 | GPIO_Pin_15;
;;;143      GPIO_InitStructure.GPIO_Mode = GPIO_Mode_IN;
00001c  2000              MOVS     r0,#0
00001e  f88d0004          STRB     r0,[sp,#4]
;;;144      GPIO_InitStructure.GPIO_PuPd  = GPIO_PuPd_NOPULL;
000022  f88d0007          STRB     r0,[sp,#7]
;;;145      GPIO_Init(GPIOD, &GPIO_InitStructure);
000026  4669              MOV      r1,sp
000028  48f9              LDR      r0,|L1.1040|
00002a  f7fffffe          BL       GPIO_Init
;;;146     
;;;147      GPIO_PinAFConfig(GPIOD, GPIO_PinSource0, GPIO_AF_MCO);
00002e  2200              MOVS     r2,#0
000030  4611              MOV      r1,r2
000032  48f7              LDR      r0,|L1.1040|
000034  f7fffffe          BL       GPIO_PinAFConfig
;;;148      GPIO_PinAFConfig(GPIOD, GPIO_PinSource1, GPIO_AF_MCO);
000038  2200              MOVS     r2,#0
00003a  2101              MOVS     r1,#1
00003c  48f4              LDR      r0,|L1.1040|
00003e  f7fffffe          BL       GPIO_PinAFConfig
;;;149      GPIO_PinAFConfig(GPIOD, GPIO_PinSource8, GPIO_AF_MCO);
000042  2200              MOVS     r2,#0
000044  2108              MOVS     r1,#8
000046  48f2              LDR      r0,|L1.1040|
000048  f7fffffe          BL       GPIO_PinAFConfig
;;;150      GPIO_PinAFConfig(GPIOD, GPIO_PinSource9, GPIO_AF_MCO);
00004c  2200              MOVS     r2,#0
00004e  2109              MOVS     r1,#9
000050  48ef              LDR      r0,|L1.1040|
000052  f7fffffe          BL       GPIO_PinAFConfig
;;;151      GPIO_PinAFConfig(GPIOD, GPIO_PinSource10, GPIO_AF_MCO);
000056  2200              MOVS     r2,#0
000058  210a              MOVS     r1,#0xa
00005a  48ed              LDR      r0,|L1.1040|
00005c  f7fffffe          BL       GPIO_PinAFConfig
;;;152      GPIO_PinAFConfig(GPIOD, GPIO_PinSource14, GPIO_AF_MCO);
000060  2200              MOVS     r2,#0
000062  210e              MOVS     r1,#0xe
000064  48ea              LDR      r0,|L1.1040|
000066  f7fffffe          BL       GPIO_PinAFConfig
;;;153      GPIO_PinAFConfig(GPIOD, GPIO_PinSource15, GPIO_AF_MCO);
00006a  2200              MOVS     r2,#0
00006c  210f              MOVS     r1,#0xf
00006e  48e8              LDR      r0,|L1.1040|
000070  f7fffffe          BL       GPIO_PinAFConfig
;;;154    
;;;155    
;;;156      GPIO_InitStructure.GPIO_Pin = GPIO_Pin_7 | GPIO_Pin_8 | GPIO_Pin_9 | GPIO_Pin_10 |
000074  f64f7080          MOV      r0,#0xff80
000078  9000              STR      r0,[sp,#0]
;;;157                                    GPIO_Pin_11 | GPIO_Pin_12 | GPIO_Pin_13 | GPIO_Pin_14 | 
;;;158                                    GPIO_Pin_15;
;;;159    
;;;160      GPIO_Init(GPIOE, &GPIO_InitStructure);
00007a  4669              MOV      r1,sp
00007c  48e5              LDR      r0,|L1.1044|
00007e  f7fffffe          BL       GPIO_Init
;;;161    
;;;162      GPIO_PinAFConfig(GPIOE, GPIO_PinSource7 , GPIO_AF_MCO);
000082  2200              MOVS     r2,#0
000084  2107              MOVS     r1,#7
000086  48e3              LDR      r0,|L1.1044|
000088  f7fffffe          BL       GPIO_PinAFConfig
;;;163      GPIO_PinAFConfig(GPIOE, GPIO_PinSource8 , GPIO_AF_MCO);
00008c  2200              MOVS     r2,#0
00008e  2108              MOVS     r1,#8
000090  48e0              LDR      r0,|L1.1044|
000092  f7fffffe          BL       GPIO_PinAFConfig
;;;164      GPIO_PinAFConfig(GPIOE, GPIO_PinSource9 , GPIO_AF_MCO);
000096  2200              MOVS     r2,#0
000098  2109              MOVS     r1,#9
00009a  48de              LDR      r0,|L1.1044|
00009c  f7fffffe          BL       GPIO_PinAFConfig
;;;165      GPIO_PinAFConfig(GPIOE, GPIO_PinSource10 , GPIO_AF_MCO);
0000a0  2200              MOVS     r2,#0
0000a2  210a              MOVS     r1,#0xa
0000a4  48db              LDR      r0,|L1.1044|
0000a6  f7fffffe          BL       GPIO_PinAFConfig
;;;166      GPIO_PinAFConfig(GPIOE, GPIO_PinSource11 , GPIO_AF_MCO);
0000aa  2200              MOVS     r2,#0
0000ac  210b              MOVS     r1,#0xb
0000ae  48d9              LDR      r0,|L1.1044|
0000b0  f7fffffe          BL       GPIO_PinAFConfig
;;;167      GPIO_PinAFConfig(GPIOE, GPIO_PinSource12 , GPIO_AF_MCO);
0000b4  2200              MOVS     r2,#0
0000b6  210c              MOVS     r1,#0xc
0000b8  48d6              LDR      r0,|L1.1044|
0000ba  f7fffffe          BL       GPIO_PinAFConfig
;;;168      GPIO_PinAFConfig(GPIOE, GPIO_PinSource13 , GPIO_AF_MCO);
0000be  2200              MOVS     r2,#0
0000c0  210d              MOVS     r1,#0xd
0000c2  48d4              LDR      r0,|L1.1044|
0000c4  f7fffffe          BL       GPIO_PinAFConfig
;;;169      GPIO_PinAFConfig(GPIOE, GPIO_PinSource14 , GPIO_AF_MCO);
0000c8  2200              MOVS     r2,#0
0000ca  210e              MOVS     r1,#0xe
0000cc  48d1              LDR      r0,|L1.1044|
0000ce  f7fffffe          BL       GPIO_PinAFConfig
;;;170      GPIO_PinAFConfig(GPIOE, GPIO_PinSource15 , GPIO_AF_MCO);
0000d2  2200              MOVS     r2,#0
0000d4  210f              MOVS     r1,#0xf
0000d6  48cf              LDR      r0,|L1.1044|
0000d8  f7fffffe          BL       GPIO_PinAFConfig
;;;171    
;;;172      /* SRAM Address lines configuration */
;;;173      GPIO_InitStructure.GPIO_Pin = GPIO_Pin_0 | GPIO_Pin_1 | GPIO_Pin_2 | GPIO_Pin_3 | 
0000dc  f24f003f          MOV      r0,#0xf03f
0000e0  9000              STR      r0,[sp,#0]
;;;174                                    GPIO_Pin_4 | GPIO_Pin_5 | GPIO_Pin_12 | GPIO_Pin_13 | 
;;;175                                    GPIO_Pin_14 | GPIO_Pin_15;
;;;176      GPIO_Init(GPIOF, &GPIO_InitStructure);
0000e2  4669              MOV      r1,sp
0000e4  48cc              LDR      r0,|L1.1048|
0000e6  f7fffffe          BL       GPIO_Init
;;;177      GPIO_PinAFConfig(GPIOF,GPIO_PinSource0, GPIO_AF_MCO);
0000ea  2200              MOVS     r2,#0
0000ec  4611              MOV      r1,r2
0000ee  48ca              LDR      r0,|L1.1048|
0000f0  f7fffffe          BL       GPIO_PinAFConfig
;;;178      GPIO_PinAFConfig(GPIOF,GPIO_PinSource1, GPIO_AF_MCO);
0000f4  2200              MOVS     r2,#0
0000f6  2101              MOVS     r1,#1
0000f8  48c7              LDR      r0,|L1.1048|
0000fa  f7fffffe          BL       GPIO_PinAFConfig
;;;179      GPIO_PinAFConfig(GPIOF,GPIO_PinSource2, GPIO_AF_MCO);
0000fe  2200              MOVS     r2,#0
000100  2102              MOVS     r1,#2
000102  48c5              LDR      r0,|L1.1048|
000104  f7fffffe          BL       GPIO_PinAFConfig
;;;180      GPIO_PinAFConfig(GPIOF,GPIO_PinSource3, GPIO_AF_MCO);
000108  2200              MOVS     r2,#0
00010a  2103              MOVS     r1,#3
00010c  48c2              LDR      r0,|L1.1048|
00010e  f7fffffe          BL       GPIO_PinAFConfig
;;;181      GPIO_PinAFConfig(GPIOF,GPIO_PinSource4, GPIO_AF_MCO);
000112  2200              MOVS     r2,#0
000114  2104              MOVS     r1,#4
000116  48c0              LDR      r0,|L1.1048|
000118  f7fffffe          BL       GPIO_PinAFConfig
;;;182      GPIO_PinAFConfig(GPIOF,GPIO_PinSource5, GPIO_AF_MCO);
00011c  2200              MOVS     r2,#0
00011e  2105              MOVS     r1,#5
000120  48bd              LDR      r0,|L1.1048|
000122  f7fffffe          BL       GPIO_PinAFConfig
;;;183      GPIO_PinAFConfig(GPIOF,GPIO_PinSource12, GPIO_AF_MCO);
000126  2200              MOVS     r2,#0
000128  210c              MOVS     r1,#0xc
00012a  48bb              LDR      r0,|L1.1048|
00012c  f7fffffe          BL       GPIO_PinAFConfig
;;;184      GPIO_PinAFConfig(GPIOF,GPIO_PinSource13, GPIO_AF_MCO);
000130  2200              MOVS     r2,#0
000132  210d              MOVS     r1,#0xd
000134  48b8              LDR      r0,|L1.1048|
000136  f7fffffe          BL       GPIO_PinAFConfig
;;;185      GPIO_PinAFConfig(GPIOF,GPIO_PinSource14, GPIO_AF_MCO);
00013a  2200              MOVS     r2,#0
00013c  210e              MOVS     r1,#0xe
00013e  48b6              LDR      r0,|L1.1048|
000140  f7fffffe          BL       GPIO_PinAFConfig
;;;186      GPIO_PinAFConfig(GPIOF,GPIO_PinSource15, GPIO_AF_MCO);
000144  2200              MOVS     r2,#0
000146  210f              MOVS     r1,#0xf
000148  48b3              LDR      r0,|L1.1048|
00014a  f7fffffe          BL       GPIO_PinAFConfig
;;;187    
;;;188    
;;;189      GPIO_InitStructure.GPIO_Pin = GPIO_Pin_0 | GPIO_Pin_1 | GPIO_Pin_2 | GPIO_Pin_3 | 
00014e  203f              MOVS     r0,#0x3f
000150  9000              STR      r0,[sp,#0]
;;;190                                    GPIO_Pin_4 | GPIO_Pin_5;
;;;191    
;;;192      GPIO_Init(GPIOG, &GPIO_InitStructure);
000152  4669              MOV      r1,sp
000154  48b1              LDR      r0,|L1.1052|
000156  f7fffffe          BL       GPIO_Init
;;;193    
;;;194      GPIO_PinAFConfig(GPIOG,GPIO_PinSource0, GPIO_AF_MCO);
00015a  2200              MOVS     r2,#0
00015c  4611              MOV      r1,r2
00015e  48af              LDR      r0,|L1.1052|
000160  f7fffffe          BL       GPIO_PinAFConfig
;;;195      GPIO_PinAFConfig(GPIOG,GPIO_PinSource1, GPIO_AF_MCO);
000164  2200              MOVS     r2,#0
000166  2101              MOVS     r1,#1
000168  48ac              LDR      r0,|L1.1052|
00016a  f7fffffe          BL       GPIO_PinAFConfig
;;;196      GPIO_PinAFConfig(GPIOG,GPIO_PinSource2, GPIO_AF_MCO);
00016e  2200              MOVS     r2,#0
000170  2102              MOVS     r1,#2
000172  48aa              LDR      r0,|L1.1052|
000174  f7fffffe          BL       GPIO_PinAFConfig
;;;197      GPIO_PinAFConfig(GPIOG,GPIO_PinSource3, GPIO_AF_MCO);
000178  2200              MOVS     r2,#0
00017a  2103              MOVS     r1,#3
00017c  48a7              LDR      r0,|L1.1052|
00017e  f7fffffe          BL       GPIO_PinAFConfig
;;;198      GPIO_PinAFConfig(GPIOG,GPIO_PinSource4, GPIO_AF_MCO);
000182  2200              MOVS     r2,#0
000184  2104              MOVS     r1,#4
000186  48a5              LDR      r0,|L1.1052|
000188  f7fffffe          BL       GPIO_PinAFConfig
;;;199      GPIO_PinAFConfig(GPIOG,GPIO_PinSource5, GPIO_AF_MCO);
00018c  2200              MOVS     r2,#0
00018e  2105              MOVS     r1,#5
000190  48a2              LDR      r0,|L1.1052|
000192  f7fffffe          BL       GPIO_PinAFConfig
;;;200    
;;;201      GPIO_InitStructure.GPIO_Pin = GPIO_Pin_11 | GPIO_Pin_12 | GPIO_Pin_13; 
000196  f44f5060          MOV      r0,#0x3800
00019a  9000              STR      r0,[sp,#0]
;;;202    
;;;203      GPIO_Init(GPIOD, &GPIO_InitStructure);
00019c  4669              MOV      r1,sp
00019e  489c              LDR      r0,|L1.1040|
0001a0  f7fffffe          BL       GPIO_Init
;;;204    
;;;205      GPIO_PinAFConfig(GPIOD,GPIO_PinSource11, GPIO_AF_MCO);
0001a4  2200              MOVS     r2,#0
0001a6  210b              MOVS     r1,#0xb
0001a8  4899              LDR      r0,|L1.1040|
0001aa  f7fffffe          BL       GPIO_PinAFConfig
;;;206      GPIO_PinAFConfig(GPIOD,GPIO_PinSource12, GPIO_AF_MCO);
0001ae  2200              MOVS     r2,#0
0001b0  210c              MOVS     r1,#0xc
0001b2  4897              LDR      r0,|L1.1040|
0001b4  f7fffffe          BL       GPIO_PinAFConfig
;;;207      GPIO_PinAFConfig(GPIOD,GPIO_PinSource13, GPIO_AF_MCO);
0001b8  2200              MOVS     r2,#0
0001ba  210d              MOVS     r1,#0xd
0001bc  4894              LDR      r0,|L1.1040|
0001be  f7fffffe          BL       GPIO_PinAFConfig
;;;208    
;;;209      /* NOE and NWE configuration */  
;;;210      GPIO_InitStructure.GPIO_Pin = GPIO_Pin_4 |GPIO_Pin_5;
0001c2  2030              MOVS     r0,#0x30
0001c4  9000              STR      r0,[sp,#0]
;;;211    
;;;212      GPIO_Init(GPIOD, &GPIO_InitStructure);
0001c6  4669              MOV      r1,sp
0001c8  4891              LDR      r0,|L1.1040|
0001ca  f7fffffe          BL       GPIO_Init
;;;213      GPIO_PinAFConfig(GPIOD,GPIO_PinSource4, GPIO_AF_MCO);
0001ce  2200              MOVS     r2,#0
0001d0  2104              MOVS     r1,#4
0001d2  488f              LDR      r0,|L1.1040|
0001d4  f7fffffe          BL       GPIO_PinAFConfig
;;;214      GPIO_PinAFConfig(GPIOD,GPIO_PinSource5, GPIO_AF_MCO);
0001d8  2200              MOVS     r2,#0
0001da  2105              MOVS     r1,#5
0001dc  488c              LDR      r0,|L1.1040|
0001de  f7fffffe          BL       GPIO_PinAFConfig
;;;215    
;;;216      /* NE3 configuration */
;;;217      GPIO_InitStructure.GPIO_Pin = GPIO_Pin_10; 
0001e2  f44f6080          MOV      r0,#0x400
0001e6  9000              STR      r0,[sp,#0]
;;;218    
;;;219      GPIO_Init(GPIOG, &GPIO_InitStructure);
0001e8  4669              MOV      r1,sp
0001ea  488c              LDR      r0,|L1.1052|
0001ec  f7fffffe          BL       GPIO_Init
;;;220      GPIO_PinAFConfig(GPIOG, GPIO_PinSource12, GPIO_AF_MCO);
0001f0  2200              MOVS     r2,#0
0001f2  210c              MOVS     r1,#0xc
0001f4  4889              LDR      r0,|L1.1052|
0001f6  f7fffffe          BL       GPIO_PinAFConfig
;;;221    
;;;222      /* NBL0, NBL1 configuration */
;;;223      GPIO_InitStructure.GPIO_Pin = GPIO_Pin_0 | GPIO_Pin_1; 
0001fa  2003              MOVS     r0,#3
0001fc  9000              STR      r0,[sp,#0]
;;;224      GPIO_Init(GPIOE, &GPIO_InitStructure); 
0001fe  4669              MOV      r1,sp
000200  4884              LDR      r0,|L1.1044|
000202  f7fffffe          BL       GPIO_Init
;;;225    
;;;226      GPIO_PinAFConfig(GPIOE,GPIO_PinSource0, GPIO_AF_MCO);
000206  2200              MOVS     r2,#0
000208  4611              MOV      r1,r2
00020a  4882              LDR      r0,|L1.1044|
00020c  f7fffffe          BL       GPIO_PinAFConfig
;;;227      GPIO_PinAFConfig(GPIOE,GPIO_PinSource1, GPIO_AF_MCO);
000210  2200              MOVS     r2,#0
000212  2101              MOVS     r1,#1
000214  487f              LDR      r0,|L1.1044|
000216  f7fffffe          BL       GPIO_PinAFConfig
;;;228    }
00021a  bd1c              POP      {r2-r4,pc}
;;;229    
                          ENDP

                  LCD_CtrlLinesConfig PROC
;;;234      */
;;;235    void LCD_CtrlLinesConfig(void)
00021c  b51c              PUSH     {r2-r4,lr}
;;;236    {
;;;237      GPIO_InitTypeDef GPIO_InitStructure;
;;;238    
;;;239      /* Enable GPIOB, GPIOD, GPIOE, GPIOF, GPIOG and AFIO clocks */
;;;240      RCC_AHB1PeriphClockCmd(RCC_AHB1Periph_GPIOB | RCC_AHB1Periph_GPIOD | RCC_AHB1Periph_GPIOE |
00021e  2101              MOVS     r1,#1
000220  203a              MOVS     r0,#0x3a
000222  f7fffffe          BL       RCC_AHB1PeriphClockCmd
;;;241                             RCC_AHB1Periph_GPIOF, ENABLE);
;;;242    
;;;243    /*-- GPIO Configuration ------------------------------------------------------*/
;;;244      /* SRAM Data lines,  NOE and NWE configuration */
;;;245      GPIO_InitStructure.GPIO_Pin = GPIO_Pin_0 | GPIO_Pin_1 | GPIO_Pin_8 | GPIO_Pin_9 |
000226  f24c7033          MOV      r0,#0xc733
00022a  9000              STR      r0,[sp,#0]
;;;246                                    GPIO_Pin_10 | GPIO_Pin_14 | GPIO_Pin_15 |
;;;247                                    GPIO_Pin_4 |GPIO_Pin_5;;
;;;248      GPIO_InitStructure.GPIO_Mode = GPIO_Mode_AF;
00022c  2002              MOVS     r0,#2
00022e  f88d0004          STRB     r0,[sp,#4]
;;;249      GPIO_InitStructure.GPIO_Speed = GPIO_Speed_50MHz;
000232  f88d0005          STRB     r0,[sp,#5]
;;;250      GPIO_InitStructure.GPIO_OType = GPIO_OType_PP;
000236  2000              MOVS     r0,#0
000238  f88d0006          STRB     r0,[sp,#6]
;;;251      GPIO_InitStructure.GPIO_PuPd  = GPIO_PuPd_NOPULL;
00023c  f88d0007          STRB     r0,[sp,#7]
;;;252      GPIO_Init(GPIOD, &GPIO_InitStructure);
000240  4669              MOV      r1,sp
000242  4873              LDR      r0,|L1.1040|
000244  f7fffffe          BL       GPIO_Init
;;;253    
;;;254      GPIO_PinAFConfig(GPIOD, GPIO_PinSource0, GPIO_AF_FSMC);
000248  220c              MOVS     r2,#0xc
00024a  2100              MOVS     r1,#0
00024c  4870              LDR      r0,|L1.1040|
00024e  f7fffffe          BL       GPIO_PinAFConfig
;;;255      GPIO_PinAFConfig(GPIOD, GPIO_PinSource1, GPIO_AF_FSMC);
000252  220c              MOVS     r2,#0xc
000254  2101              MOVS     r1,#1
000256  486e              LDR      r0,|L1.1040|
000258  f7fffffe          BL       GPIO_PinAFConfig
;;;256      GPIO_PinAFConfig(GPIOD, GPIO_PinSource4, GPIO_AF_FSMC);
00025c  220c              MOVS     r2,#0xc
00025e  2104              MOVS     r1,#4
000260  486b              LDR      r0,|L1.1040|
000262  f7fffffe          BL       GPIO_PinAFConfig
;;;257      GPIO_PinAFConfig(GPIOD, GPIO_PinSource5, GPIO_AF_FSMC);
000266  220c              MOVS     r2,#0xc
000268  2105              MOVS     r1,#5
00026a  4869              LDR      r0,|L1.1040|
00026c  f7fffffe          BL       GPIO_PinAFConfig
;;;258      GPIO_PinAFConfig(GPIOD, GPIO_PinSource8, GPIO_AF_FSMC);
000270  220c              MOVS     r2,#0xc
000272  2108              MOVS     r1,#8
000274  4866              LDR      r0,|L1.1040|
000276  f7fffffe          BL       GPIO_PinAFConfig
;;;259      GPIO_PinAFConfig(GPIOD, GPIO_PinSource9, GPIO_AF_FSMC);
00027a  220c              MOVS     r2,#0xc
00027c  2109              MOVS     r1,#9
00027e  4864              LDR      r0,|L1.1040|
000280  f7fffffe          BL       GPIO_PinAFConfig
;;;260      GPIO_PinAFConfig(GPIOD, GPIO_PinSource10, GPIO_AF_FSMC);
000284  220c              MOVS     r2,#0xc
000286  210a              MOVS     r1,#0xa
000288  4861              LDR      r0,|L1.1040|
00028a  f7fffffe          BL       GPIO_PinAFConfig
;;;261      GPIO_PinAFConfig(GPIOD, GPIO_PinSource14, GPIO_AF_FSMC);
00028e  220c              MOVS     r2,#0xc
000290  210e              MOVS     r1,#0xe
000292  485f              LDR      r0,|L1.1040|
000294  f7fffffe          BL       GPIO_PinAFConfig
;;;262      GPIO_PinAFConfig(GPIOD, GPIO_PinSource15, GPIO_AF_FSMC);
000298  220c              MOVS     r2,#0xc
00029a  210f              MOVS     r1,#0xf
00029c  485c              LDR      r0,|L1.1040|
00029e  f7fffffe          BL       GPIO_PinAFConfig
;;;263    
;;;264      GPIO_InitStructure.GPIO_Pin = GPIO_Pin_7 | GPIO_Pin_8 | GPIO_Pin_9 | GPIO_Pin_10 |
0002a2  f64f7080          MOV      r0,#0xff80
0002a6  9000              STR      r0,[sp,#0]
;;;265                                    GPIO_Pin_11 | GPIO_Pin_12 | GPIO_Pin_13 | GPIO_Pin_14 | 
;;;266                                    GPIO_Pin_15;
;;;267      GPIO_Init(GPIOE, &GPIO_InitStructure);
0002a8  4669              MOV      r1,sp
0002aa  485a              LDR      r0,|L1.1044|
0002ac  f7fffffe          BL       GPIO_Init
;;;268    
;;;269      GPIO_PinAFConfig(GPIOE, GPIO_PinSource7 , GPIO_AF_FSMC);
0002b0  220c              MOVS     r2,#0xc
0002b2  2107              MOVS     r1,#7
0002b4  4857              LDR      r0,|L1.1044|
0002b6  f7fffffe          BL       GPIO_PinAFConfig
;;;270      GPIO_PinAFConfig(GPIOE, GPIO_PinSource8 , GPIO_AF_FSMC);
0002ba  220c              MOVS     r2,#0xc
0002bc  2108              MOVS     r1,#8
0002be  4855              LDR      r0,|L1.1044|
0002c0  f7fffffe          BL       GPIO_PinAFConfig
;;;271      GPIO_PinAFConfig(GPIOE, GPIO_PinSource9 , GPIO_AF_FSMC);
0002c4  220c              MOVS     r2,#0xc
0002c6  2109              MOVS     r1,#9
0002c8  4852              LDR      r0,|L1.1044|
0002ca  f7fffffe          BL       GPIO_PinAFConfig
;;;272      GPIO_PinAFConfig(GPIOE, GPIO_PinSource10 , GPIO_AF_FSMC);
0002ce  220c              MOVS     r2,#0xc
0002d0  210a              MOVS     r1,#0xa
0002d2  4850              LDR      r0,|L1.1044|
0002d4  f7fffffe          BL       GPIO_PinAFConfig
;;;273      GPIO_PinAFConfig(GPIOE, GPIO_PinSource11 , GPIO_AF_FSMC);
0002d8  220c              MOVS     r2,#0xc
0002da  210b              MOVS     r1,#0xb
0002dc  484d              LDR      r0,|L1.1044|
0002de  f7fffffe          BL       GPIO_PinAFConfig
;;;274      GPIO_PinAFConfig(GPIOE, GPIO_PinSource12 , GPIO_AF_FSMC);
0002e2  220c              MOVS     r2,#0xc
0002e4  4611              MOV      r1,r2
0002e6  484b              LDR      r0,|L1.1044|
0002e8  f7fffffe          BL       GPIO_PinAFConfig
;;;275      GPIO_PinAFConfig(GPIOE, GPIO_PinSource13 , GPIO_AF_FSMC);
0002ec  220c              MOVS     r2,#0xc
0002ee  210d              MOVS     r1,#0xd
0002f0  4848              LDR      r0,|L1.1044|
0002f2  f7fffffe          BL       GPIO_PinAFConfig
;;;276      GPIO_PinAFConfig(GPIOE, GPIO_PinSource14 , GPIO_AF_FSMC);
0002f6  220c              MOVS     r2,#0xc
0002f8  210e              MOVS     r1,#0xe
0002fa  4846              LDR      r0,|L1.1044|
0002fc  f7fffffe          BL       GPIO_PinAFConfig
;;;277      GPIO_PinAFConfig(GPIOE, GPIO_PinSource15 , GPIO_AF_FSMC);
000300  220c              MOVS     r2,#0xc
000302  210f              MOVS     r1,#0xf
000304  4843              LDR      r0,|L1.1044|
000306  f7fffffe          BL       GPIO_PinAFConfig
;;;278    
;;;279      /* SRAM Address lines configuration LCD-DC */
;;;280      GPIO_InitStructure.GPIO_Pin = GPIO_Pin_3;
00030a  2008              MOVS     r0,#8
00030c  9000              STR      r0,[sp,#0]
;;;281      GPIO_Init(GPIOE, &GPIO_InitStructure);  
00030e  4669              MOV      r1,sp
000310  4840              LDR      r0,|L1.1044|
000312  f7fffffe          BL       GPIO_Init
;;;282      GPIO_PinAFConfig(GPIOE, GPIO_PinSource3, GPIO_AF_FSMC);	   
000316  220c              MOVS     r2,#0xc
000318  2103              MOVS     r1,#3
00031a  483e              LDR      r0,|L1.1044|
00031c  f7fffffe          BL       GPIO_PinAFConfig
;;;283    
;;;284      /* NE3 configuration */
;;;285      GPIO_InitStructure.GPIO_Pin = GPIO_Pin_7; 
000320  2080              MOVS     r0,#0x80
000322  9000              STR      r0,[sp,#0]
;;;286      GPIO_Init(GPIOD, &GPIO_InitStructure);
000324  4669              MOV      r1,sp
000326  483a              LDR      r0,|L1.1040|
000328  f7fffffe          BL       GPIO_Init
;;;287      GPIO_PinAFConfig(GPIOD, GPIO_PinSource10, GPIO_AF_FSMC);
00032c  220c              MOVS     r2,#0xc
00032e  210a              MOVS     r1,#0xa
000330  4837              LDR      r0,|L1.1040|
000332  f7fffffe          BL       GPIO_PinAFConfig
;;;288    
;;;289      /* LCD RST configuration */
;;;290      GPIO_InitStructure.GPIO_Pin = LCD_RST_PIN; 
000336  2008              MOVS     r0,#8
000338  9000              STR      r0,[sp,#0]
;;;291      GPIO_InitStructure.GPIO_Mode = GPIO_Mode_OUT;
00033a  2001              MOVS     r0,#1
00033c  f88d0004          STRB     r0,[sp,#4]
;;;292      GPIO_InitStructure.GPIO_Speed = GPIO_Speed_2MHz;
000340  2000              MOVS     r0,#0
000342  f88d0005          STRB     r0,[sp,#5]
;;;293      GPIO_InitStructure.GPIO_OType = GPIO_OType_PP;
000346  f88d0006          STRB     r0,[sp,#6]
;;;294      GPIO_InitStructure.GPIO_PuPd  = GPIO_PuPd_NOPULL;
00034a  f88d0007          STRB     r0,[sp,#7]
;;;295    
;;;296      GPIO_Init(LCD_RST_PORT, &GPIO_InitStructure);
00034e  4669              MOV      r1,sp
000350  482f              LDR      r0,|L1.1040|
000352  f7fffffe          BL       GPIO_Init
;;;297    
;;;298       /* LCD pwm configuration */
;;;299      GPIO_InitStructure.GPIO_Pin = LCD_PWM_PIN; 
000356  f44f5000          MOV      r0,#0x2000
00035a  9000              STR      r0,[sp,#0]
;;;300      GPIO_InitStructure.GPIO_Mode = GPIO_Mode_OUT;
00035c  2001              MOVS     r0,#1
00035e  f88d0004          STRB     r0,[sp,#4]
;;;301      GPIO_InitStructure.GPIO_Speed = GPIO_Speed_25MHz;
000362  f88d0005          STRB     r0,[sp,#5]
;;;302      GPIO_InitStructure.GPIO_OType = GPIO_OType_PP;
000366  2000              MOVS     r0,#0
000368  f88d0006          STRB     r0,[sp,#6]
;;;303      GPIO_InitStructure.GPIO_PuPd  = GPIO_PuPd_NOPULL;
00036c  f88d0007          STRB     r0,[sp,#7]
;;;304    
;;;305      GPIO_Init(LCD_PWM_PORT, &GPIO_InitStructure);
000370  4669              MOV      r1,sp
000372  4827              LDR      r0,|L1.1040|
000374  f7fffffe          BL       GPIO_Init
;;;306      GPIO_SetBits(LCD_PWM_PORT, LCD_PWM_PIN);
000378  f44f5100          MOV      r1,#0x2000
00037c  4824              LDR      r0,|L1.1040|
00037e  f7fffffe          BL       GPIO_SetBits
;;;307    }
000382  bd1c              POP      {r2-r4,pc}
;;;308    
                          ENDP

                  LCD_FSMCConfig PROC
;;;313      */
;;;314    void LCD_FSMCConfig(void)
000384  b500              PUSH     {lr}
;;;315    {
000386  b097              SUB      sp,sp,#0x5c
;;;316      FSMC_NORSRAMInitTypeDef  FSMC_NORSRAMInitStructure;
;;;317      FSMC_NORSRAMTimingInitTypeDef  p;
;;;318       
;;;319      /* Enable FSMC clock */
;;;320      RCC_AHB3PeriphClockCmd(RCC_AHB3Periph_FSMC, ENABLE);
000388  2101              MOVS     r1,#1
00038a  4608              MOV      r0,r1
00038c  f7fffffe          BL       RCC_AHB3PeriphClockCmd
;;;321      
;;;322    /*-- FSMC Configuration ------------------------------------------------------*/
;;;323    /*----------------------- SRAM Bank 1 ----------------------------------------*/
;;;324      /* FSMC_Bank1_NORSRAM4 configuration */
;;;325      p.FSMC_AddressSetupTime = 1;
000390  2001              MOVS     r0,#1
000392  9001              STR      r0,[sp,#4]
;;;326      p.FSMC_AddressHoldTime = 0;
000394  2000              MOVS     r0,#0
000396  9002              STR      r0,[sp,#8]
;;;327      p.FSMC_DataSetupTime = 9;
000398  2009              MOVS     r0,#9
00039a  9003              STR      r0,[sp,#0xc]
;;;328      p.FSMC_BusTurnAroundDuration = 0;
00039c  2000              MOVS     r0,#0
00039e  9004              STR      r0,[sp,#0x10]
;;;329      p.FSMC_CLKDivision = 0;
0003a0  9005              STR      r0,[sp,#0x14]
;;;330      p.FSMC_DataLatency = 0;
0003a2  9006              STR      r0,[sp,#0x18]
;;;331      p.FSMC_AccessMode = FSMC_AccessMode_A;
0003a4  9007              STR      r0,[sp,#0x1c]
;;;332      /* Color LCD configuration ------------------------------------
;;;333         LCD configured as follow:
;;;334            - Data/Address MUX = Disable
;;;335            - Memory Type = SRAM
;;;336            - Data Width = 16bit
;;;337            - Write Operation = Enable
;;;338            - Extended Mode = Enable
;;;339            - Asynchronous Wait = Disable */
;;;340    
;;;341      FSMC_NORSRAMInitStructure.FSMC_Bank = FSMC_Bank1_NORSRAM1;
0003a6  9008              STR      r0,[sp,#0x20]
;;;342      FSMC_NORSRAMInitStructure.FSMC_DataAddressMux = FSMC_DataAddressMux_Disable;
0003a8  9009              STR      r0,[sp,#0x24]
;;;343      FSMC_NORSRAMInitStructure.FSMC_MemoryType = FSMC_MemoryType_SRAM;
0003aa  900a              STR      r0,[sp,#0x28]
;;;344      FSMC_NORSRAMInitStructure.FSMC_MemoryDataWidth = FSMC_MemoryDataWidth_16b;
0003ac  2010              MOVS     r0,#0x10
0003ae  900b              STR      r0,[sp,#0x2c]
;;;345      FSMC_NORSRAMInitStructure.FSMC_BurstAccessMode = FSMC_BurstAccessMode_Disable;
0003b0  2000              MOVS     r0,#0
0003b2  900c              STR      r0,[sp,#0x30]
;;;346      FSMC_NORSRAMInitStructure.FSMC_AsynchronousWait = FSMC_AsynchronousWait_Disable;
0003b4  900d              STR      r0,[sp,#0x34]
;;;347      FSMC_NORSRAMInitStructure.FSMC_WaitSignalPolarity = FSMC_WaitSignalPolarity_Low;
0003b6  900e              STR      r0,[sp,#0x38]
;;;348      FSMC_NORSRAMInitStructure.FSMC_WrapMode = FSMC_WrapMode_Disable;
0003b8  900f              STR      r0,[sp,#0x3c]
;;;349      FSMC_NORSRAMInitStructure.FSMC_WaitSignalActive = FSMC_WaitSignalActive_BeforeWaitState;
0003ba  9010              STR      r0,[sp,#0x40]
;;;350      FSMC_NORSRAMInitStructure.FSMC_WriteOperation = FSMC_WriteOperation_Enable;
0003bc  f44f5080          MOV      r0,#0x1000
0003c0  9011              STR      r0,[sp,#0x44]
;;;351      FSMC_NORSRAMInitStructure.FSMC_WaitSignal = FSMC_WaitSignal_Disable;
0003c2  2000              MOVS     r0,#0
0003c4  9012              STR      r0,[sp,#0x48]
;;;352      FSMC_NORSRAMInitStructure.FSMC_ExtendedMode = FSMC_ExtendedMode_Disable;
0003c6  9013              STR      r0,[sp,#0x4c]
;;;353      FSMC_NORSRAMInitStructure.FSMC_WriteBurst = FSMC_WriteBurst_Disable;
0003c8  9014              STR      r0,[sp,#0x50]
;;;354      FSMC_NORSRAMInitStructure.FSMC_ReadWriteTimingStruct = &p;
0003ca  a801              ADD      r0,sp,#4
0003cc  9015              STR      r0,[sp,#0x54]
;;;355      FSMC_NORSRAMInitStructure.FSMC_WriteTimingStruct = &p;
0003ce  9016              STR      r0,[sp,#0x58]
;;;356    
;;;357      FSMC_NORSRAMInit(&FSMC_NORSRAMInitStructure);   
0003d0  a808              ADD      r0,sp,#0x20
0003d2  f7fffffe          BL       FSMC_NORSRAMInit
;;;358    
;;;359      /* Enable FSMC NOR/SRAM Bank1 */
;;;360      FSMC_NORSRAMCmd(FSMC_Bank1_NORSRAM1, ENABLE);
0003d6  2101              MOVS     r1,#1
0003d8  2000              MOVS     r0,#0
0003da  f7fffffe          BL       FSMC_NORSRAMCmd
;;;361    }
0003de  b017              ADD      sp,sp,#0x5c
0003e0  bd00              POP      {pc}
;;;362    
                          ENDP

                  LCD_SetFont PROC
;;;628      */
;;;629    void LCD_SetFont(sFONT *fonts)
0003e2  490f              LDR      r1,|L1.1056|
;;;630    {
;;;631      LCD_Currentfonts = fonts;
0003e4  6008              STR      r0,[r1,#0]  ; LCD_Currentfonts
;;;632    }
0003e6  4770              BX       lr
;;;633    
                          ENDP

                  LCD_WriteRAM PROC
;;;510      */
;;;511    void LCD_WriteRAM(uint16_t RGB_Code)
0003e8  490e              LDR      r1,|L1.1060|
;;;512    {
;;;513      /* Write 16-bit GRAM Reg */
;;;514      LCD_Data = RGB_Code;
0003ea  8008              STRH     r0,[r1,#0]
;;;515    }
0003ec  4770              BX       lr
;;;516    
                          ENDP

                  LCD_WriteReg PROC
;;;474      */
;;;475    void LCD_WriteReg(uint8_t LCD_Reg, uint16_t LCD_RegValue)
0003ee  f04f42c0          MOV      r2,#0x60000000
;;;476    {
;;;477      /* Write 16-bit Index, then Write Reg */
;;;478      LCD_CMD = LCD_Reg;
0003f2  8010              STRH     r0,[r2,#0]
;;;479      /* Write 16-bit Reg */
;;;480      LCD_Data = LCD_RegValue;
0003f4  4a0b              LDR      r2,|L1.1060|
0003f6  8011              STRH     r1,[r2,#0]
;;;481    }
0003f8  4770              BX       lr
;;;482    
                          ENDP

                  delay PROC
;;;1346     */
;;;1347   static void delay(__IO uint32_t nCount)
0003fa  b501              PUSH     {r0,lr}
;;;1348   {
0003fc  b081              SUB      sp,sp,#4
;;;1349     __IO uint32_t index = 0; 
0003fe  2000              MOVS     r0,#0
000400  9000              STR      r0,[sp,#0]
;;;1350     for(index = (10000 * nCount); index != 0; index--)
000402  f2427110          MOV      r1,#0x2710
000406  9801              LDR      r0,[sp,#4]
000408  4348              MULS     r0,r1,r0
00040a  9000              STR      r0,[sp,#0]
00040c  e00f              B        |L1.1070|
00040e  0000              DCW      0x0000
                  |L1.1040|
                          DCD      0x40020c00
                  |L1.1044|
                          DCD      0x40021000
                  |L1.1048|
                          DCD      0x40021400
                  |L1.1052|
                          DCD      0x40021800
                  |L1.1056|
                          DCD      LCD_Currentfonts
                  |L1.1060|
                          DCD      0x60100000
                  |L1.1064|
000428  9800              LDR      r0,[sp,#0]
00042a  1e40              SUBS     r0,r0,#1
00042c  9000              STR      r0,[sp,#0]
                  |L1.1070|
00042e  9800              LDR      r0,[sp,#0]
000430  2800              CMP      r0,#0
000432  d1f9              BNE      |L1.1064|
;;;1351     {
;;;1352     }
;;;1353   }
000434  bd0c              POP      {r2,r3,pc}
;;;1354   #endif /* USE_Delay*/
                          ENDP

                  STM32f4_Discovery_LCD_Init PROC
;;;366      */
;;;367    void STM32f4_Discovery_LCD_Init(void)
000436  b510              PUSH     {r4,lr}
;;;368    { 
;;;369    
;;;370      unsigned long ulCount;
;;;371    	
;;;372      /* Configure the LCD Control pins */
;;;373      LCD_CtrlLinesConfig();
000438  f7fffffe          BL       LCD_CtrlLinesConfig
;;;374    	
;;;375      /* Configure the FSMC Parallel interface */
;;;376      LCD_FSMCConfig();
00043c  f7fffffe          BL       LCD_FSMCConfig
;;;377    	
;;;378      _delay_(5); 
000440  2005              MOVS     r0,#5
000442  f7fffffe          BL       delay
;;;379    	
;;;380      /* Reset LCD */
;;;381      GPIO_ResetBits(LCD_RST_PORT, LCD_RST_PIN);	
000446  2108              MOVS     r1,#8
000448  48fc              LDR      r0,|L1.2108|
00044a  f7fffffe          BL       GPIO_ResetBits
;;;382      _delay_(10);	
00044e  200a              MOVS     r0,#0xa
000450  f7fffffe          BL       delay
;;;383      GPIO_SetBits(LCD_RST_PORT, LCD_RST_PIN);
000454  2108              MOVS     r1,#8
000456  48f9              LDR      r0,|L1.2108|
000458  f7fffffe          BL       GPIO_SetBits
;;;384    
;;;385      /*
;;;386      SSD2119Init(void)
;;;387      */
;;;388      /* Enter sleep mode (if we are not already there).*/
;;;389      LCD_WriteReg(SSD2119_SLEEP_MODE_1_REG, 0x0001);
00045c  2101              MOVS     r1,#1
00045e  2010              MOVS     r0,#0x10
000460  f7fffffe          BL       LCD_WriteReg
;;;390    
;;;391      /* Set initial power parameters. */
;;;392      LCD_WriteReg(SSD2119_PWR_CTRL_5_REG, 0x00B2);
000464  21b2              MOVS     r1,#0xb2
000466  201e              MOVS     r0,#0x1e
000468  f7fffffe          BL       LCD_WriteReg
;;;393      LCD_WriteReg(SSD2119_VCOM_OTP_1_REG, 0x0006);
00046c  2106              MOVS     r1,#6
00046e  2028              MOVS     r0,#0x28
000470  f7fffffe          BL       LCD_WriteReg
;;;394      
;;;395      /* Start the oscillator.*/
;;;396      LCD_WriteReg(SSD2119_OSC_START_REG, 0x0001);
000474  2101              MOVS     r1,#1
000476  2000              MOVS     r0,#0
000478  f7fffffe          BL       LCD_WriteReg
;;;397    
;;;398      /* Set pixel format and basic display orientation (scanning direction).*/
;;;399      LCD_WriteReg(SSD2119_OUTPUT_CTRL_REG, 0x30EF);
00047c  f24301ef          MOV      r1,#0x30ef
000480  2001              MOVS     r0,#1
000482  f7fffffe          BL       LCD_WriteReg
;;;400      LCD_WriteReg(SSD2119_LCD_DRIVE_AC_CTRL_REG, 0x0600);
000486  f44f61c0          MOV      r1,#0x600
00048a  2002              MOVS     r0,#2
00048c  f7fffffe          BL       LCD_WriteReg
;;;401    
;;;402      /* Exit sleep mode.*/
;;;403      LCD_WriteReg(SSD2119_SLEEP_MODE_1_REG, 0x0000);
000490  2100              MOVS     r1,#0
000492  2010              MOVS     r0,#0x10
000494  f7fffffe          BL       LCD_WriteReg
;;;404      _delay_(5);
000498  2005              MOVS     r0,#5
00049a  f7fffffe          BL       delay
;;;405    	  
;;;406      /* Configure pixel color format and MCU interface parameters.*/
;;;407      LCD_WriteReg(SSD2119_ENTRY_MODE_REG, ENTRY_MODE_DEFAULT);
00049e  f6460130          MOV      r1,#0x6830
0004a2  2011              MOVS     r0,#0x11
0004a4  f7fffffe          BL       LCD_WriteReg
;;;408    
;;;409      /* Set analog parameters */
;;;410      LCD_WriteReg(SSD2119_SLEEP_MODE_2_REG, 0x0999);
0004a8  f6401199          MOV      r1,#0x999
0004ac  2012              MOVS     r0,#0x12
0004ae  f7fffffe          BL       LCD_WriteReg
;;;411      LCD_WriteReg(SSD2119_ANALOG_SET_REG, 0x3800);
0004b2  f44f5160          MOV      r1,#0x3800
0004b6  2026              MOVS     r0,#0x26
0004b8  f7fffffe          BL       LCD_WriteReg
;;;412    
;;;413      /* Enable the display */
;;;414      LCD_WriteReg(SSD2119_DISPLAY_CTRL_REG, 0x0033);
0004bc  2133              MOVS     r1,#0x33
0004be  2007              MOVS     r0,#7
0004c0  f7fffffe          BL       LCD_WriteReg
;;;415    
;;;416      /* Set VCIX2 voltage to 6.1V.*/
;;;417      LCD_WriteReg(SSD2119_PWR_CTRL_2_REG, 0x0005);
0004c4  2105              MOVS     r1,#5
0004c6  200c              MOVS     r0,#0xc
0004c8  f7fffffe          BL       LCD_WriteReg
;;;418    
;;;419      /* Configure gamma correction.*/
;;;420      LCD_WriteReg(SSD2119_GAMMA_CTRL_1_REG, 0x0000);
0004cc  2100              MOVS     r1,#0
0004ce  2030              MOVS     r0,#0x30
0004d0  f7fffffe          BL       LCD_WriteReg
;;;421      LCD_WriteReg(SSD2119_GAMMA_CTRL_2_REG, 0x0303);
0004d4  f2403103          MOV      r1,#0x303
0004d8  2031              MOVS     r0,#0x31
0004da  f7fffffe          BL       LCD_WriteReg
;;;422      LCD_WriteReg(SSD2119_GAMMA_CTRL_3_REG, 0x0407);
0004de  f2404107          MOV      r1,#0x407
0004e2  2032              MOVS     r0,#0x32
0004e4  f7fffffe          BL       LCD_WriteReg
;;;423      LCD_WriteReg(SSD2119_GAMMA_CTRL_4_REG, 0x0301);
0004e8  f2403101          MOV      r1,#0x301
0004ec  2033              MOVS     r0,#0x33
0004ee  f7fffffe          BL       LCD_WriteReg
;;;424      LCD_WriteReg(SSD2119_GAMMA_CTRL_5_REG, 0x0301);
0004f2  f2403101          MOV      r1,#0x301
0004f6  2034              MOVS     r0,#0x34
0004f8  f7fffffe          BL       LCD_WriteReg
;;;425      LCD_WriteReg(SSD2119_GAMMA_CTRL_6_REG, 0x0403);
0004fc  f2404103          MOV      r1,#0x403
000500  2035              MOVS     r0,#0x35
000502  f7fffffe          BL       LCD_WriteReg
;;;426      LCD_WriteReg(SSD2119_GAMMA_CTRL_7_REG, 0x0707);
000506  f2407107          MOV      r1,#0x707
00050a  2036              MOVS     r0,#0x36
00050c  f7fffffe          BL       LCD_WriteReg
;;;427      LCD_WriteReg(SSD2119_GAMMA_CTRL_8_REG, 0x0400);
000510  f44f6180          MOV      r1,#0x400
000514  2037              MOVS     r0,#0x37
000516  f7fffffe          BL       LCD_WriteReg
;;;428      LCD_WriteReg(SSD2119_GAMMA_CTRL_9_REG, 0x0a00);
00051a  f44f6120          MOV      r1,#0xa00
00051e  203a              MOVS     r0,#0x3a
000520  f7fffffe          BL       LCD_WriteReg
;;;429      LCD_WriteReg(SSD2119_GAMMA_CTRL_10_REG, 0x1000);
000524  f44f5180          MOV      r1,#0x1000
000528  203b              MOVS     r0,#0x3b
00052a  f7fffffe          BL       LCD_WriteReg
;;;430    
;;;431      /* Configure Vlcd63 and VCOMl */
;;;432      LCD_WriteReg(SSD2119_PWR_CTRL_3_REG, 0x000A);
00052e  210a              MOVS     r1,#0xa
000530  200d              MOVS     r0,#0xd
000532  f7fffffe          BL       LCD_WriteReg
;;;433      LCD_WriteReg(SSD2119_PWR_CTRL_4_REG, 0x2E00);
000536  f44f5138          MOV      r1,#0x2e00
00053a  200e              MOVS     r0,#0xe
00053c  f7fffffe          BL       LCD_WriteReg
;;;434    
;;;435      /* Set the display size and ensure that the GRAM window is set to allow
;;;436         access to the full display buffer.*/
;;;437      LCD_WriteReg(SSD2119_V_RAM_POS_REG, (LCD_PIXEL_HEIGHT-1) << 8);
000540  f44f416f          MOV      r1,#0xef00
000544  2044              MOVS     r0,#0x44
000546  f7fffffe          BL       LCD_WriteReg
;;;438      LCD_WriteReg(SSD2119_H_RAM_START_REG, 0x0000);
00054a  2100              MOVS     r1,#0
00054c  2045              MOVS     r0,#0x45
00054e  f7fffffe          BL       LCD_WriteReg
;;;439      LCD_WriteReg(SSD2119_H_RAM_END_REG, LCD_PIXEL_WIDTH-1);
000552  f240113f          MOV      r1,#0x13f
000556  2046              MOVS     r0,#0x46
000558  f7fffffe          BL       LCD_WriteReg
;;;440    
;;;441      LCD_WriteReg(SSD2119_X_RAM_ADDR_REG, 0x00);
00055c  2100              MOVS     r1,#0
00055e  204e              MOVS     r0,#0x4e
000560  f7fffffe          BL       LCD_WriteReg
;;;442      LCD_WriteReg(SSD2119_Y_RAM_ADDR_REG, 0x00);
000564  2100              MOVS     r1,#0
000566  204f              MOVS     r0,#0x4f
000568  f7fffffe          BL       LCD_WriteReg
;;;443      
;;;444      /* clear the lcd  */
;;;445      LCD_WriteReg(SSD2119_RAM_DATA_REG, 0x0000);
00056c  2100              MOVS     r1,#0
00056e  2022              MOVS     r0,#0x22
000570  f7fffffe          BL       LCD_WriteReg
;;;446      for(ulCount = 0; ulCount < (LCD_PIXEL_WIDTH * LCD_PIXEL_HEIGHT); ulCount++)
000574  2400              MOVS     r4,#0
000576  e003              B        |L1.1408|
                  |L1.1400|
;;;447      {
;;;448        LCD_WriteRAM(0x0000);
000578  2000              MOVS     r0,#0
00057a  f7fffffe          BL       LCD_WriteRAM
00057e  1c64              ADDS     r4,r4,#1              ;446
                  |L1.1408|
000580  f5b43f96          CMP      r4,#0x12c00           ;446
000584  d3f8              BCC      |L1.1400|
;;;449      }
;;;450      LCD_SetFont(&LCD_DEFAULT_FONT);
000586  48ae              LDR      r0,|L1.2112|
000588  f7fffffe          BL       LCD_SetFont
;;;451    }
00058c  bd10              POP      {r4,pc}
;;;452    
                          ENDP

                  LCD_SetCursor PROC
;;;459      */
;;;460    void LCD_SetCursor(uint16_t Xpos, uint16_t Ypos)
00058e  b510              PUSH     {r4,lr}
;;;461    {
000590  4603              MOV      r3,r0
000592  460c              MOV      r4,r1
;;;462      /* Set the X address of the display cursor.*/
;;;463      LCD_WriteReg(SSD2119_X_RAM_ADDR_REG, Xpos);
000594  4619              MOV      r1,r3
000596  204e              MOVS     r0,#0x4e
000598  f7fffffe          BL       LCD_WriteReg
;;;464    	
;;;465      /* Set the Y address of the display cursor.*/
;;;466      LCD_WriteReg(SSD2119_Y_RAM_ADDR_REG, Ypos);
00059c  4621              MOV      r1,r4
00059e  204f              MOVS     r0,#0x4f
0005a0  f7fffffe          BL       LCD_WriteReg
;;;467    }
0005a4  bd10              POP      {r4,pc}
;;;468    
                          ENDP

                  LCD_ReadReg PROC
;;;487      */
;;;488    uint16_t LCD_ReadReg(uint8_t LCD_Reg)
0005a6  4601              MOV      r1,r0
;;;489    {
;;;490      /* Write 16-bit Index (then Read Reg) */
;;;491      LCD_CMD = LCD_Reg;
0005a8  f04f40c0          MOV      r0,#0x60000000
0005ac  8001              STRH     r1,[r0,#0]
;;;492      /* Read 16-bit Reg */
;;;493      return (LCD_Data);
0005ae  48a5              LDR      r0,|L1.2116|
0005b0  8800              LDRH     r0,[r0,#0]
;;;494    }
0005b2  4770              BX       lr
;;;495    
                          ENDP

                  LCD_WriteRAM_Prepare PROC
;;;500      */
;;;501    void LCD_WriteRAM_Prepare(void)
0005b4  2022              MOVS     r0,#0x22
;;;502    {
;;;503    	LCD_CMD = SSD2119_RAM_DATA_REG;
0005b6  f04f41c0          MOV      r1,#0x60000000
0005ba  8008              STRH     r0,[r1,#0]
;;;504    }
0005bc  4770              BX       lr
;;;505    
                          ENDP

                  LCD_ReadRAM PROC
;;;521      */
;;;522    uint16_t LCD_ReadRAM(void)
0005be  48a1              LDR      r0,|L1.2116|
;;;523    {
;;;524      /* Write 16-bit Index (then Read Reg) */
;;;525    //  LCD_CMD = SSD2119_RAM_DATA_REG; /* Select GRAM Reg */
;;;526      /* Read 16-bit Reg */
;;;527      return LCD_Data;
0005c0  8800              LDRH     r0,[r0,#0]
;;;528    }
0005c2  4770              BX       lr
;;;529    
                          ENDP

                  LCD_RGB_Test PROC
;;;533      */
;;;534    void LCD_RGB_Test(void)
0005c4  b510              PUSH     {r4,lr}
;;;535    {
;;;536      uint32_t index;
;;;537    
;;;538      LCD_SetCursor(0x00, 0x00); 
0005c6  2100              MOVS     r1,#0
0005c8  4608              MOV      r0,r1
0005ca  f7fffffe          BL       LCD_SetCursor
;;;539      LCD_WriteRAM_Prepare(); /* Prepare to write GRAM */
0005ce  f7fffffe          BL       LCD_WriteRAM_Prepare
;;;540    
;;;541    	/* R */
;;;542      for(index = 0; index < (LCD_PIXEL_HEIGHT*LCD_PIXEL_WIDTH)/3; index++)
0005d2  2400              MOVS     r4,#0
0005d4  e004              B        |L1.1504|
                  |L1.1494|
;;;543      {
;;;544        LCD_Data = LCD_COLOR_RED;
0005d6  f44f4078          MOV      r0,#0xf800
0005da  499a              LDR      r1,|L1.2116|
0005dc  8008              STRH     r0,[r1,#0]
0005de  1c64              ADDS     r4,r4,#1              ;542
                  |L1.1504|
0005e0  f5b44fc8          CMP      r4,#0x6400            ;542
0005e4  d3f7              BCC      |L1.1494|
;;;545      }
;;;546    	  
;;;547      /* G */
;;;548      for(;index < 2*(LCD_PIXEL_HEIGHT*LCD_PIXEL_WIDTH)/3; index++)
0005e6  e004              B        |L1.1522|
                  |L1.1512|
;;;549      {
;;;550        LCD_Data = LCD_COLOR_GREEN;
0005e8  f44f60fc          MOV      r0,#0x7e0
0005ec  4995              LDR      r1,|L1.2116|
0005ee  8008              STRH     r0,[r1,#0]
0005f0  1c64              ADDS     r4,r4,#1              ;548
                  |L1.1522|
0005f2  f5b44f48          CMP      r4,#0xc800            ;548
0005f6  d3f7              BCC      |L1.1512|
;;;551      }
;;;552    	  
;;;553    	/* B */
;;;554      for(; index < LCD_PIXEL_HEIGHT*LCD_PIXEL_WIDTH; index++)
0005f8  e003              B        |L1.1538|
                  |L1.1530|
;;;555      {
;;;556        LCD_Data = LCD_COLOR_BLUE;
0005fa  201f              MOVS     r0,#0x1f
0005fc  4991              LDR      r1,|L1.2116|
0005fe  8008              STRH     r0,[r1,#0]
000600  1c64              ADDS     r4,r4,#1              ;554
                  |L1.1538|
000602  f5b43f96          CMP      r4,#0x12c00           ;554
000606  d3f8              BCC      |L1.1530|
;;;557      }
;;;558    }
000608  bd10              POP      {r4,pc}
;;;559    
                          ENDP

                  LCD_SetColors PROC
;;;567      */
;;;568    void LCD_SetColors(__IO uint16_t _TextColor, __IO uint16_t _BackColor)
00060a  b503              PUSH     {r0,r1,lr}
;;;569    {
;;;570      TextColor = _TextColor; 
00060c  f8bd0000          LDRH     r0,[sp,#0]
000610  498d              LDR      r1,|L1.2120|
000612  8008              STRH     r0,[r1,#0]
;;;571      BackColor = _BackColor;
000614  f8bd0004          LDRH     r0,[sp,#4]
000618  498c              LDR      r1,|L1.2124|
00061a  8008              STRH     r0,[r1,#0]
;;;572    }
00061c  bd0c              POP      {r2,r3,pc}
;;;573    
                          ENDP

                  LCD_GetColors PROC
;;;581      */
;;;582    void LCD_GetColors(__IO uint16_t *_TextColor, __IO uint16_t *_BackColor)
00061e  4a8a              LDR      r2,|L1.2120|
;;;583    {
;;;584      *_TextColor = TextColor; *_BackColor = BackColor;
000620  8812              LDRH     r2,[r2,#0]  ; TextColor
000622  8002              STRH     r2,[r0,#0]
000624  4a89              LDR      r2,|L1.2124|
000626  8812              LDRH     r2,[r2,#0]  ; BackColor
000628  800a              STRH     r2,[r1,#0]
;;;585    }
00062a  4770              BX       lr
;;;586    
                          ENDP

                  LCD_SetTextColor PROC
;;;591      */
;;;592    void LCD_SetTextColor(__IO uint16_t Color)
00062c  b501              PUSH     {r0,lr}
;;;593    {
;;;594      TextColor = Color;
00062e  f8bd0000          LDRH     r0,[sp,#0]
000632  4985              LDR      r1,|L1.2120|
000634  8008              STRH     r0,[r1,#0]
;;;595    }
000636  bd08              POP      {r3,pc}
;;;596    
                          ENDP

                  LCD_SetBackColor PROC
;;;602      */
;;;603    void LCD_SetBackColor(__IO uint16_t Color)
000638  b501              PUSH     {r0,lr}
;;;604    {
;;;605      BackColor = Color;
00063a  f8bd0000          LDRH     r0,[sp,#0]
00063e  4983              LDR      r1,|L1.2124|
000640  8008              STRH     r0,[r1,#0]
;;;606    }
000642  bd08              POP      {r3,pc}
;;;607    
                          ENDP

                  LCD_DisplayOn PROC
;;;618      */
;;;619    void LCD_DisplayOn(void)
000644  4770              BX       lr
;;;620    {
;;;621    
;;;622    }
;;;623    
                          ENDP

                  LCD_GetFont PROC
;;;638      */
;;;639    sFONT *LCD_GetFont(void)
000646  4882              LDR      r0,|L1.2128|
;;;640    {
;;;641      return LCD_Currentfonts;
000648  6800              LDR      r0,[r0,#0]  ; LCD_Currentfonts
;;;642    }
00064a  4770              BX       lr
;;;643    
                          ENDP

                  LCD_DrawChar PROC
;;;701      */
;;;702    void LCD_DrawChar(uint16_t Xpos, uint16_t Ypos, const uint16_t *c)
00064c  e92d43f0          PUSH     {r4-r9,lr}
;;;703    {
000650  4607              MOV      r7,r0
000652  4688              MOV      r8,r1
000654  4616              MOV      r6,r2
;;;704      uint32_t index = 0, i = 0;
000656  2400              MOVS     r4,#0
000658  2500              MOVS     r5,#0
;;;705      uint16_t  Xaddress = 0;
00065a  46a1              MOV      r9,r4
;;;706      Xaddress = Xpos;
00065c  46b9              MOV      r9,r7
;;;707      
;;;708      LCD_SetCursor(Ypos, Xaddress);
00065e  4649              MOV      r1,r9
000660  4640              MOV      r0,r8
000662  f7fffffe          BL       LCD_SetCursor
;;;709      
;;;710      for(index = 0; index < LCD_Currentfonts->Height; index++)
000666  bf00              NOP      
000668  e039              B        |L1.1758|
                  |L1.1642|
;;;711      {
;;;712        LCD_WriteRAM_Prepare(); /* Prepare to write GRAM */
00066a  f7fffffe          BL       LCD_WriteRAM_Prepare
;;;713        for(i = 0; i < LCD_Currentfonts->Width; i++)
00066e  2500              MOVS     r5,#0
000670  e027              B        |L1.1730|
                  |L1.1650|
;;;714        {
;;;715      
;;;716          if((((c[index] & ((0x80 << ((LCD_Currentfonts->Width / 12 ) * 8 ) ) >> i)) == 0x00) &&(LCD_Currentfonts->Width <= 12))||
000672  4877              LDR      r0,|L1.2128|
000674  6800              LDR      r0,[r0,#0]  ; LCD_Currentfonts
000676  8880              LDRH     r0,[r0,#4]
000678  210c              MOVS     r1,#0xc
00067a  fb90f0f1          SDIV     r0,r0,r1
00067e  00c1              LSLS     r1,r0,#3
000680  2080              MOVS     r0,#0x80
000682  4088              LSLS     r0,r0,r1
000684  4128              ASRS     r0,r0,r5
000686  f8361014          LDRH     r1,[r6,r4,LSL #1]
00068a  4008              ANDS     r0,r0,r1
00068c  b920              CBNZ     r0,|L1.1688|
00068e  4870              LDR      r0,|L1.2128|
000690  6800              LDR      r0,[r0,#0]  ; LCD_Currentfonts
000692  8880              LDRH     r0,[r0,#4]
000694  280c              CMP      r0,#0xc
000696  dd0a              BLE      |L1.1710|
                  |L1.1688|
;;;717            (((c[index] & (0x1 << i)) == 0x00)&&(LCD_Currentfonts->Width > 12 )))
000698  f8360014          LDRH     r0,[r6,r4,LSL #1]
00069c  2101              MOVS     r1,#1
00069e  40a9              LSLS     r1,r1,r5
0006a0  4008              ANDS     r0,r0,r1
0006a2  b948              CBNZ     r0,|L1.1720|
0006a4  486a              LDR      r0,|L1.2128|
0006a6  6800              LDR      r0,[r0,#0]  ; LCD_Currentfonts
0006a8  8880              LDRH     r0,[r0,#4]
0006aa  280c              CMP      r0,#0xc
0006ac  dd04              BLE      |L1.1720|
                  |L1.1710|
;;;718    
;;;719          {
;;;720            LCD_WriteRAM(BackColor);
0006ae  4867              LDR      r0,|L1.2124|
0006b0  8800              LDRH     r0,[r0,#0]  ; BackColor
0006b2  f7fffffe          BL       LCD_WriteRAM
0006b6  e003              B        |L1.1728|
                  |L1.1720|
;;;721          }
;;;722          else
;;;723          {
;;;724            LCD_WriteRAM(TextColor);
0006b8  4863              LDR      r0,|L1.2120|
0006ba  8800              LDRH     r0,[r0,#0]  ; TextColor
0006bc  f7fffffe          BL       LCD_WriteRAM
                  |L1.1728|
0006c0  1c6d              ADDS     r5,r5,#1              ;713
                  |L1.1730|
0006c2  4863              LDR      r0,|L1.2128|
0006c4  6800              LDR      r0,[r0,#0]            ;713  ; LCD_Currentfonts
0006c6  8880              LDRH     r0,[r0,#4]            ;713
0006c8  42a8              CMP      r0,r5                 ;713
0006ca  d8d2              BHI      |L1.1650|
;;;725          } 
;;;726        }
;;;727        Xaddress++;
0006cc  f1090001          ADD      r0,r9,#1
0006d0  fa1ff980          UXTH     r9,r0
;;;728        LCD_SetCursor(Ypos, Xaddress);
0006d4  4649              MOV      r1,r9
0006d6  4640              MOV      r0,r8
0006d8  f7fffffe          BL       LCD_SetCursor
0006dc  1c64              ADDS     r4,r4,#1              ;710
                  |L1.1758|
0006de  485c              LDR      r0,|L1.2128|
0006e0  6800              LDR      r0,[r0,#0]            ;710  ; LCD_Currentfonts
0006e2  88c0              LDRH     r0,[r0,#6]            ;710
0006e4  42a0              CMP      r0,r4                 ;710
0006e6  d8c0              BHI      |L1.1642|
;;;729      }
;;;730    }
0006e8  e8bd83f0          POP      {r4-r9,pc}
;;;731    
                          ENDP

                  LCD_DisplayChar PROC
;;;740      */
;;;741    void LCD_DisplayChar(uint16_t Line, uint16_t Column, uint8_t Ascii)
0006ec  b570              PUSH     {r4-r6,lr}
;;;742    {
0006ee  4605              MOV      r5,r0
0006f0  460e              MOV      r6,r1
0006f2  4614              MOV      r4,r2
;;;743      Ascii -= 32;
0006f4  f1a40020          SUB      r0,r4,#0x20
0006f8  b2c4              UXTB     r4,r0
;;;744      LCD_DrawChar(Line, Column, &LCD_Currentfonts->table[Ascii * LCD_Currentfonts->Height]);
0006fa  4855              LDR      r0,|L1.2128|
0006fc  6800              LDR      r0,[r0,#0]  ; LCD_Currentfonts
0006fe  6801              LDR      r1,[r0,#0]
000700  4853              LDR      r0,|L1.2128|
000702  6800              LDR      r0,[r0,#0]  ; LCD_Currentfonts
000704  88c0              LDRH     r0,[r0,#6]
000706  4360              MULS     r0,r4,r0
000708  eb010240          ADD      r2,r1,r0,LSL #1
00070c  4631              MOV      r1,r6
00070e  4628              MOV      r0,r5
000710  f7fffffe          BL       LCD_DrawChar
;;;745    }
000714  bd70              POP      {r4-r6,pc}
;;;746    
                          ENDP

                  LCD_ClearLine PROC
;;;650      */
;;;651    void LCD_ClearLine(uint16_t Line)
000716  b530              PUSH     {r4,r5,lr}
;;;652    {
000718  4605              MOV      r5,r0
;;;653      uint16_t refcolumn = 0;
00071a  2400              MOVS     r4,#0
;;;654    
;;;655      do {
00071c  bf00              NOP      
                  |L1.1822|
;;;656           /* Display one character on LCD */
;;;657        LCD_DisplayChar(Line, refcolumn, ' ');
00071e  2220              MOVS     r2,#0x20
000720  4621              MOV      r1,r4
000722  4628              MOV      r0,r5
000724  f7fffffe          BL       LCD_DisplayChar
;;;658        /* Decrement the column position by 16 */
;;;659        refcolumn += LCD_Currentfonts->Width;
000728  4849              LDR      r0,|L1.2128|
00072a  6800              LDR      r0,[r0,#0]  ; LCD_Currentfonts
00072c  8880              LDRH     r0,[r0,#4]
00072e  4420              ADD      r0,r0,r4
000730  b284              UXTH     r4,r0
;;;660      } while (refcolumn < LCD_PIXEL_WIDTH);	
000732  f5b47fa0          CMP      r4,#0x140
000736  dbf2              BLT      |L1.1822|
;;;661    }
000738  bd30              POP      {r4,r5,pc}
;;;662    
                          ENDP

                  LCD_Clear PROC
;;;667      */
;;;668    void LCD_Clear(uint16_t Color)
00073a  b530              PUSH     {r4,r5,lr}
;;;669    {
00073c  4604              MOV      r4,r0
;;;670      uint32_t index = 0;
00073e  2500              MOVS     r5,#0
;;;671      
;;;672      LCD_SetCursor(0x00, 0x00); 
000740  2100              MOVS     r1,#0
000742  4608              MOV      r0,r1
000744  f7fffffe          BL       LCD_SetCursor
;;;673      LCD_WriteRAM_Prepare(); /* Prepare to write GRAM */
000748  f7fffffe          BL       LCD_WriteRAM_Prepare
;;;674      for(index = 0; index < LCD_PIXEL_HEIGHT*LCD_PIXEL_WIDTH; index++)
00074c  bf00              NOP      
00074e  e002              B        |L1.1878|
                  |L1.1872|
;;;675      {
;;;676        LCD_Data = Color;
000750  483c              LDR      r0,|L1.2116|
000752  8004              STRH     r4,[r0,#0]
000754  1c6d              ADDS     r5,r5,#1              ;674
                  |L1.1878|
000756  f5b53f96          CMP      r5,#0x12c00           ;674
00075a  d3f9              BCC      |L1.1872|
;;;677      }  
;;;678    }
00075c  bd30              POP      {r4,r5,pc}
;;;679    
                          ENDP

                  LCD_DrawLine PROC
;;;825      */
;;;826    void LCD_DrawLine(uint16_t Xpos, uint16_t Ypos, uint16_t Length, uint8_t Direction)
00075e  e92d41f0          PUSH     {r4-r8,lr}
;;;827    {
000762  4680              MOV      r8,r0
000764  460e              MOV      r6,r1
000766  4615              MOV      r5,r2
000768  461f              MOV      r7,r3
;;;828      uint32_t i = 0;
00076a  2400              MOVS     r4,#0
;;;829      
;;;830      LCD_SetCursor(Xpos, Ypos);
00076c  4631              MOV      r1,r6
00076e  4640              MOV      r0,r8
000770  f7fffffe          BL       LCD_SetCursor
;;;831      if(Direction == LCD_DIR_HORIZONTAL)
000774  b95f              CBNZ     r7,|L1.1934|
;;;832      {
;;;833        LCD_WriteRAM_Prepare(); /* Prepare to write GRAM */
000776  f7fffffe          BL       LCD_WriteRAM_Prepare
;;;834        for(i = 0; i < Length; i++)
00077a  bf00              NOP      
00077c  e004              B        |L1.1928|
                  |L1.1918|
;;;835        {
;;;836          LCD_WriteRAM(TextColor);
00077e  4832              LDR      r0,|L1.2120|
000780  8800              LDRH     r0,[r0,#0]  ; TextColor
000782  f7fffffe          BL       LCD_WriteRAM
000786  1c64              ADDS     r4,r4,#1              ;834
                  |L1.1928|
000788  42ac              CMP      r4,r5                 ;834
00078a  d3f8              BCC      |L1.1918|
00078c  e010              B        |L1.1968|
                  |L1.1934|
;;;837        }
;;;838      }
;;;839      else
;;;840      {
;;;841        for(i = 0; i < Length; i++)
00078e  2400              MOVS     r4,#0
000790  e00c              B        |L1.1964|
                  |L1.1938|
;;;842        {
;;;843          LCD_WriteRAM_Prepare(); /* Prepare to write GRAM */
000792  f7fffffe          BL       LCD_WriteRAM_Prepare
;;;844          LCD_WriteRAM(TextColor);
000796  482c              LDR      r0,|L1.2120|
000798  8800              LDRH     r0,[r0,#0]  ; TextColor
00079a  f7fffffe          BL       LCD_WriteRAM
;;;845          Ypos++;
00079e  1c70              ADDS     r0,r6,#1
0007a0  b286              UXTH     r6,r0
;;;846          LCD_SetCursor(Xpos, Ypos);
0007a2  4631              MOV      r1,r6
0007a4  4640              MOV      r0,r8
0007a6  f7fffffe          BL       LCD_SetCursor
0007aa  1c64              ADDS     r4,r4,#1              ;841
                  |L1.1964|
0007ac  42ac              CMP      r4,r5                 ;841
0007ae  d3f0              BCC      |L1.1938|
                  |L1.1968|
;;;847        }
;;;848      }
;;;849    }
0007b0  e8bd81f0          POP      {r4-r8,pc}
;;;850    
                          ENDP

                  PutPixel PROC
;;;685      */
;;;686    static void PutPixel(int16_t x, int16_t y)
0007b4  b530              PUSH     {r4,r5,lr}
;;;687    { 
0007b6  4604              MOV      r4,r0
0007b8  460d              MOV      r5,r1
;;;688      if(x < 0 || x > LCD_PIXEL_WIDTH-1 || y < 0 || y > LCD_PIXEL_HEIGHT-1)
0007ba  2c00              CMP      r4,#0
0007bc  db06              BLT      |L1.1996|
0007be  f5b47fa0          CMP      r4,#0x140
0007c2  da03              BGE      |L1.1996|
0007c4  2d00              CMP      r5,#0
0007c6  db01              BLT      |L1.1996|
0007c8  2def              CMP      r5,#0xef
0007ca  dd00              BLE      |L1.1998|
                  |L1.1996|
;;;689      {
;;;690        return;  
;;;691      }
;;;692      LCD_DrawLine(x, y, 1, LCD_DIR_HORIZONTAL);
;;;693    }
0007cc  bd30              POP      {r4,r5,pc}
                  |L1.1998|
0007ce  b2a9              UXTH     r1,r5                 ;692
0007d0  b2a0              UXTH     r0,r4                 ;692
0007d2  2300              MOVS     r3,#0                 ;692
0007d4  2201              MOVS     r2,#1                 ;692
0007d6  f7fffffe          BL       LCD_DrawLine
0007da  bf00              NOP      
0007dc  e7f6              B        |L1.1996|
;;;694    
                          ENDP

                  LCD_DisplayStringLine PROC
;;;754      */
;;;755    void LCD_DisplayStringLine(uint16_t Line, uint8_t *ptr)
0007de  b570              PUSH     {r4-r6,lr}
;;;756    {
0007e0  4606              MOV      r6,r0
0007e2  460c              MOV      r4,r1
;;;757      uint16_t refcolumn = 0;
0007e4  2500              MOVS     r5,#0
;;;758    
;;;759      /* Send the string character by character on lCD */
;;;760      while (*ptr != 0)
0007e6  e00e              B        |L1.2054|
                  |L1.2024|
;;;761      {
;;;762        /* Display one character on LCD */
;;;763        LCD_DisplayChar(Line, refcolumn, *ptr);
0007e8  7822              LDRB     r2,[r4,#0]
0007ea  4629              MOV      r1,r5
0007ec  4630              MOV      r0,r6
0007ee  f7fffffe          BL       LCD_DisplayChar
;;;764        /* Decrement the column position by 16 */
;;;765        refcolumn += LCD_Currentfonts->Width;
0007f2  4817              LDR      r0,|L1.2128|
0007f4  6800              LDR      r0,[r0,#0]  ; LCD_Currentfonts
0007f6  8880              LDRH     r0,[r0,#4]
0007f8  4428              ADD      r0,r0,r5
0007fa  b285              UXTH     r5,r0
;;;766    	if (refcolumn >= LCD_PIXEL_WIDTH) {
0007fc  f5b57fa0          CMP      r5,#0x140
000800  db00              BLT      |L1.2052|
;;;767    		break;
000802  e003              B        |L1.2060|
                  |L1.2052|
;;;768    	}
;;;769        /* Point on the next character */
;;;770        ptr++;
000804  1c64              ADDS     r4,r4,#1
                  |L1.2054|
000806  7820              LDRB     r0,[r4,#0]            ;760
000808  2800              CMP      r0,#0                 ;760
00080a  d1ed              BNE      |L1.2024|
                  |L1.2060|
00080c  bf00              NOP                            ;767
;;;771      }
;;;772    }
00080e  bd70              POP      {r4-r6,pc}
;;;773    
                          ENDP

                  LCD_SetDisplayWindow PROC
;;;781      */
;;;782    void LCD_SetDisplayWindow(uint16_t Xpos, uint16_t Ypos, uint16_t width, uint16_t Height)
000810  e92d41f0          PUSH     {r4-r8,lr}
;;;783    {
000814  4604              MOV      r4,r0
000816  460d              MOV      r5,r1
000818  4616              MOV      r6,r2
00081a  461f              MOV      r7,r3
;;;784      uint32_t value = 0;	
00081c  f04f0800          MOV      r8,#0
;;;785    
;;;786      LCD_WriteReg(SSD2119_H_RAM_START_REG, Xpos);
000820  4621              MOV      r1,r4
000822  2045              MOVS     r0,#0x45
000824  f7fffffe          BL       LCD_WriteReg
;;;787    	
;;;788      if ((Xpos+width) >= LCD_PIXEL_WIDTH) {
000828  19a0              ADDS     r0,r4,r6
00082a  f5b07fa0          CMP      r0,#0x140
00082e  db11              BLT      |L1.2132|
;;;789        LCD_WriteReg(SSD2119_H_RAM_END_REG, LCD_PIXEL_WIDTH-1);	
000830  f240113f          MOV      r1,#0x13f
000834  2046              MOVS     r0,#0x46
000836  f7fffffe          BL       LCD_WriteReg
00083a  e010              B        |L1.2142|
                  |L1.2108|
                          DCD      0x40020c00
                  |L1.2112|
                          DCD      Font16x24
                  |L1.2116|
                          DCD      0x60100000
                  |L1.2120|
                          DCD      TextColor
                  |L1.2124|
                          DCD      BackColor
                  |L1.2128|
                          DCD      LCD_Currentfonts
                  |L1.2132|
;;;790      } else {
;;;791        LCD_WriteReg(SSD2119_H_RAM_END_REG, Xpos+width);		
000854  19a0              ADDS     r0,r4,r6
000856  b281              UXTH     r1,r0
000858  2046              MOVS     r0,#0x46
00085a  f7fffffe          BL       LCD_WriteReg
                  |L1.2142|
;;;792      }
;;;793      
;;;794      if ((Ypos+Height) >= LCD_PIXEL_HEIGHT) {
00085e  19e8              ADDS     r0,r5,r7
000860  28f0              CMP      r0,#0xf0
000862  db02              BLT      |L1.2154|
;;;795        value = (LCD_PIXEL_HEIGHT-1) << 8;	
000864  f44f486f          MOV      r8,#0xef00
000868  e002              B        |L1.2160|
                  |L1.2154|
;;;796      } else {
;;;797        value = (Ypos+Height) << 8;	
00086a  19e8              ADDS     r0,r5,r7
00086c  ea4f2800          LSL      r8,r0,#8
                  |L1.2160|
;;;798      }
;;;799      value |= Xpos;
000870  ea480804          ORR      r8,r8,r4
;;;800      LCD_WriteReg(SSD2119_V_RAM_POS_REG, value);
000874  fa1ff188          UXTH     r1,r8
000878  2044              MOVS     r0,#0x44
00087a  f7fffffe          BL       LCD_WriteReg
;;;801      LCD_SetCursor(Xpos, Ypos);
00087e  4629              MOV      r1,r5
000880  4620              MOV      r0,r4
000882  f7fffffe          BL       LCD_SetCursor
;;;802    }
000886  e8bd81f0          POP      {r4-r8,pc}
;;;803    
                          ENDP

                  LCD_WindowModeDisable PROC
;;;808      */
;;;809    void LCD_WindowModeDisable(void)
00088a  4770              BX       lr
;;;810    {
;;;811    #if 0
;;;812      LCD_SetDisplayWindow(239, 0x13F, 240, 320);
;;;813      LCD_WriteReg(LCD_REG_3, 0x1018);    
;;;814    #endif
;;;815    }
;;;816    
                          ENDP

                  LCD_DrawRect PROC
;;;858      */
;;;859    void LCD_DrawRect(uint16_t Xpos, uint16_t Ypos, uint8_t Height, uint16_t Width)
00088c  b5f0              PUSH     {r4-r7,lr}
;;;860    {
00088e  4605              MOV      r5,r0
000890  460e              MOV      r6,r1
000892  4617              MOV      r7,r2
000894  461c              MOV      r4,r3
;;;861      LCD_DrawLine(Xpos, Ypos, Width, LCD_DIR_VERTICAL);
000896  2301              MOVS     r3,#1
000898  4622              MOV      r2,r4
00089a  4631              MOV      r1,r6
00089c  4628              MOV      r0,r5
00089e  f7fffffe          BL       LCD_DrawLine
;;;862      LCD_DrawLine((Xpos + Height-1), Ypos, Width, LCD_DIR_VERTICAL);
0008a2  19e9              ADDS     r1,r5,r7
0008a4  1e49              SUBS     r1,r1,#1
0008a6  b288              UXTH     r0,r1
0008a8  2301              MOVS     r3,#1
0008aa  4622              MOV      r2,r4
0008ac  4631              MOV      r1,r6
0008ae  f7fffffe          BL       LCD_DrawLine
;;;863      
;;;864      LCD_DrawLine(Xpos, Ypos, Height, LCD_DIR_HORIZONTAL);
0008b2  2300              MOVS     r3,#0
0008b4  463a              MOV      r2,r7
0008b6  4631              MOV      r1,r6
0008b8  4628              MOV      r0,r5
0008ba  f7fffffe          BL       LCD_DrawLine
;;;865      LCD_DrawLine(Xpos, (Ypos + Width), Height, LCD_DIR_HORIZONTAL);
0008be  1930              ADDS     r0,r6,r4
0008c0  b281              UXTH     r1,r0
0008c2  2300              MOVS     r3,#0
0008c4  463a              MOV      r2,r7
0008c6  4628              MOV      r0,r5
0008c8  f7fffffe          BL       LCD_DrawLine
;;;866    }
0008cc  bdf0              POP      {r4-r7,pc}
;;;867    
                          ENDP

                  LCD_DrawCircle PROC
;;;874      */
;;;875    void LCD_DrawCircle(uint16_t Xpos, uint16_t Ypos, uint16_t Radius)
0008ce  e92d43f0          PUSH     {r4-r9,lr}
;;;876    {
0008d2  4606              MOV      r6,r0
0008d4  460f              MOV      r7,r1
0008d6  4690              MOV      r8,r2
;;;877      int32_t  D;/* Decision Variable */ 
;;;878      uint32_t  CurX;/* Current X Value */
;;;879      uint32_t  CurY;/* Current Y Value */ 
;;;880      
;;;881      D = 3 - (Radius << 1);
0008d8  2003              MOVS     r0,#3
0008da  eba00948          SUB      r9,r0,r8,LSL #1
;;;882      CurX = 0;
0008de  2400              MOVS     r4,#0
;;;883      CurY = Radius;
0008e0  4645              MOV      r5,r8
;;;884      
;;;885      while (CurX <= CurY)
0008e2  e06e              B        |L1.2498|
                  |L1.2276|
;;;886      {
;;;887        LCD_SetCursor(Xpos + CurX, Ypos + CurY);
0008e4  197a              ADDS     r2,r7,r5
0008e6  b291              UXTH     r1,r2
0008e8  1932              ADDS     r2,r6,r4
0008ea  b290              UXTH     r0,r2
0008ec  f7fffffe          BL       LCD_SetCursor
;;;888        LCD_WriteRAM_Prepare(); /* Prepare to write GRAM */
0008f0  f7fffffe          BL       LCD_WriteRAM_Prepare
;;;889        LCD_WriteRAM(TextColor);
0008f4  48fe              LDR      r0,|L1.3312|
0008f6  8800              LDRH     r0,[r0,#0]  ; TextColor
0008f8  f7fffffe          BL       LCD_WriteRAM
;;;890        LCD_SetCursor(Xpos + CurX, Ypos - CurY);
0008fc  1b7a              SUBS     r2,r7,r5
0008fe  b291              UXTH     r1,r2
000900  1932              ADDS     r2,r6,r4
000902  b290              UXTH     r0,r2
000904  f7fffffe          BL       LCD_SetCursor
;;;891        LCD_WriteRAM_Prepare(); /* Prepare to write GRAM */
000908  f7fffffe          BL       LCD_WriteRAM_Prepare
;;;892        LCD_WriteRAM(TextColor);
00090c  48f8              LDR      r0,|L1.3312|
00090e  8800              LDRH     r0,[r0,#0]  ; TextColor
000910  f7fffffe          BL       LCD_WriteRAM
;;;893        LCD_SetCursor(Xpos - CurX, Ypos + CurY);
000914  197a              ADDS     r2,r7,r5
000916  b291              UXTH     r1,r2
000918  1b32              SUBS     r2,r6,r4
00091a  b290              UXTH     r0,r2
00091c  f7fffffe          BL       LCD_SetCursor
;;;894        LCD_WriteRAM_Prepare(); /* Prepare to write GRAM */
000920  f7fffffe          BL       LCD_WriteRAM_Prepare
;;;895        LCD_WriteRAM(TextColor);
000924  48f2              LDR      r0,|L1.3312|
000926  8800              LDRH     r0,[r0,#0]  ; TextColor
000928  f7fffffe          BL       LCD_WriteRAM
;;;896        LCD_SetCursor(Xpos - CurX, Ypos - CurY);
00092c  1b7a              SUBS     r2,r7,r5
00092e  b291              UXTH     r1,r2
000930  1b32              SUBS     r2,r6,r4
000932  b290              UXTH     r0,r2
000934  f7fffffe          BL       LCD_SetCursor
;;;897        LCD_WriteRAM_Prepare(); /* Prepare to write GRAM */
000938  f7fffffe          BL       LCD_WriteRAM_Prepare
;;;898        LCD_WriteRAM(TextColor);
00093c  48ec              LDR      r0,|L1.3312|
00093e  8800              LDRH     r0,[r0,#0]  ; TextColor
000940  f7fffffe          BL       LCD_WriteRAM
;;;899        LCD_SetCursor(Xpos + CurY, Ypos + CurX);
000944  193a              ADDS     r2,r7,r4
000946  b291              UXTH     r1,r2
000948  1972              ADDS     r2,r6,r5
00094a  b290              UXTH     r0,r2
00094c  f7fffffe          BL       LCD_SetCursor
;;;900        LCD_WriteRAM_Prepare(); /* Prepare to write GRAM */
000950  f7fffffe          BL       LCD_WriteRAM_Prepare
;;;901        LCD_WriteRAM(TextColor);
000954  48e6              LDR      r0,|L1.3312|
000956  8800              LDRH     r0,[r0,#0]  ; TextColor
000958  f7fffffe          BL       LCD_WriteRAM
;;;902        LCD_SetCursor(Xpos + CurY, Ypos - CurX);
00095c  1b3a              SUBS     r2,r7,r4
00095e  b291              UXTH     r1,r2
000960  1972              ADDS     r2,r6,r5
000962  b290              UXTH     r0,r2
000964  f7fffffe          BL       LCD_SetCursor
;;;903        LCD_WriteRAM_Prepare(); /* Prepare to write GRAM */
000968  f7fffffe          BL       LCD_WriteRAM_Prepare
;;;904        LCD_WriteRAM(TextColor);
00096c  48e0              LDR      r0,|L1.3312|
00096e  8800              LDRH     r0,[r0,#0]  ; TextColor
000970  f7fffffe          BL       LCD_WriteRAM
;;;905        LCD_SetCursor(Xpos - CurY, Ypos + CurX);
000974  193a              ADDS     r2,r7,r4
000976  b291              UXTH     r1,r2
000978  1b72              SUBS     r2,r6,r5
00097a  b290              UXTH     r0,r2
00097c  f7fffffe          BL       LCD_SetCursor
;;;906        LCD_WriteRAM_Prepare(); /* Prepare to write GRAM */
000980  f7fffffe          BL       LCD_WriteRAM_Prepare
;;;907        LCD_WriteRAM(TextColor);
000984  48da              LDR      r0,|L1.3312|
000986  8800              LDRH     r0,[r0,#0]  ; TextColor
000988  f7fffffe          BL       LCD_WriteRAM
;;;908        LCD_SetCursor(Xpos - CurY, Ypos - CurX);
00098c  1b3a              SUBS     r2,r7,r4
00098e  b291              UXTH     r1,r2
000990  1b72              SUBS     r2,r6,r5
000992  b290              UXTH     r0,r2
000994  f7fffffe          BL       LCD_SetCursor
;;;909        LCD_WriteRAM_Prepare(); /* Prepare to write GRAM */
000998  f7fffffe          BL       LCD_WriteRAM_Prepare
;;;910        LCD_WriteRAM(TextColor);
00099c  48d4              LDR      r0,|L1.3312|
00099e  8800              LDRH     r0,[r0,#0]  ; TextColor
0009a0  f7fffffe          BL       LCD_WriteRAM
;;;911        if (D < 0)
0009a4  f1b90f00          CMP      r9,#0
0009a8  da04              BGE      |L1.2484|
;;;912        { 
;;;913          D += (CurX << 2) + 6;
0009aa  2006              MOVS     r0,#6
0009ac  eb000084          ADD      r0,r0,r4,LSL #2
0009b0  4481              ADD      r9,r9,r0
0009b2  e005              B        |L1.2496|
                  |L1.2484|
;;;914        }
;;;915        else
;;;916        {
;;;917          D += ((CurX - CurY) << 2) + 10;
0009b4  1b60              SUBS     r0,r4,r5
0009b6  210a              MOVS     r1,#0xa
0009b8  eb010080          ADD      r0,r1,r0,LSL #2
0009bc  4481              ADD      r9,r9,r0
;;;918          CurY--;
0009be  1e6d              SUBS     r5,r5,#1
                  |L1.2496|
;;;919        }
;;;920        CurX++;
0009c0  1c64              ADDS     r4,r4,#1
                  |L1.2498|
0009c2  42ac              CMP      r4,r5                 ;885
0009c4  d98e              BLS      |L1.2276|
;;;921      }
;;;922    }
0009c6  e8bd83f0          POP      {r4-r9,pc}
;;;923    
                          ENDP

                  LCD_DrawMonoPict PROC
;;;928      */
;;;929    void LCD_DrawMonoPict(const uint32_t *Pict)
0009ca  b570              PUSH     {r4-r6,lr}
;;;930    {
0009cc  4606              MOV      r6,r0
;;;931      uint32_t index = 0, i = 0;
0009ce  2400              MOVS     r4,#0
0009d0  2500              MOVS     r5,#0
;;;932      LCD_SetCursor(0, (LCD_PIXEL_WIDTH - 1)); 
0009d2  f240113f          MOV      r1,#0x13f
0009d6  2000              MOVS     r0,#0
0009d8  f7fffffe          BL       LCD_SetCursor
;;;933      LCD_WriteRAM_Prepare(); /* Prepare to write GRAM */
0009dc  f7fffffe          BL       LCD_WriteRAM_Prepare
;;;934      for(index = 0; index < 2400; index++)
0009e0  bf00              NOP      
0009e2  e014              B        |L1.2574|
                  |L1.2532|
;;;935      {
;;;936        for(i = 0; i < 32; i++)
0009e4  2500              MOVS     r5,#0
0009e6  e00f              B        |L1.2568|
                  |L1.2536|
;;;937        {
;;;938          if((Pict[index] & (1 << i)) == 0x00)
0009e8  f8560024          LDR      r0,[r6,r4,LSL #2]
0009ec  2101              MOVS     r1,#1
0009ee  40a9              LSLS     r1,r1,r5
0009f0  4008              ANDS     r0,r0,r1
0009f2  b920              CBNZ     r0,|L1.2558|
;;;939          {
;;;940            LCD_WriteRAM(BackColor);
0009f4  48bf              LDR      r0,|L1.3316|
0009f6  8800              LDRH     r0,[r0,#0]  ; BackColor
0009f8  f7fffffe          BL       LCD_WriteRAM
0009fc  e003              B        |L1.2566|
                  |L1.2558|
;;;941          }
;;;942          else
;;;943          {
;;;944            LCD_WriteRAM(TextColor);
0009fe  48bc              LDR      r0,|L1.3312|
000a00  8800              LDRH     r0,[r0,#0]  ; TextColor
000a02  f7fffffe          BL       LCD_WriteRAM
                  |L1.2566|
000a06  1c6d              ADDS     r5,r5,#1              ;936
                  |L1.2568|
000a08  2d20              CMP      r5,#0x20              ;936
000a0a  d3ed              BCC      |L1.2536|
000a0c  1c64              ADDS     r4,r4,#1              ;934
                  |L1.2574|
000a0e  f5b46f16          CMP      r4,#0x960             ;934
000a12  d3e7              BCC      |L1.2532|
;;;945          }
;;;946        }
;;;947      }
;;;948    }
000a14  bd70              POP      {r4-r6,pc}
;;;949    
                          ENDP

                  LCD_WriteBMP PROC
;;;954      */
;;;955    void LCD_WriteBMP(uint32_t BmpAddress)
000a16  4770              BX       lr
;;;956    {
;;;957    #if 0
;;;958      uint32_t index = 0, size = 0;
;;;959      /* Read bitmap size */
;;;960      size = *(__IO uint16_t *) (BmpAddress + 2);
;;;961      size |= (*(__IO uint16_t *) (BmpAddress + 4)) << 16;
;;;962      /* Get bitmap data address offset */
;;;963      index = *(__IO uint16_t *) (BmpAddress + 10);
;;;964      index |= (*(__IO uint16_t *) (BmpAddress + 12)) << 16;
;;;965      size = (size - index)/2;
;;;966      BmpAddress += index;
;;;967      /* Set GRAM write direction and BGR = 1 */
;;;968      /* I/D=00 (Horizontal : decrement, Vertical : decrement) */
;;;969      /* AM=1 (address is updated in vertical writing direction) */
;;;970      LCD_WriteReg(LCD_REG_3, 0x1008);
;;;971     
;;;972      LCD_WriteRAM_Prepare();
;;;973     
;;;974      for(index = 0; index < size; index++)
;;;975      {
;;;976        LCD_WriteRAM(*(__IO uint16_t *)BmpAddress);
;;;977        BmpAddress += 2;
;;;978      }
;;;979     
;;;980      /* Set GRAM write direction and BGR = 1 */
;;;981      /* I/D = 01 (Horizontal : increment, Vertical : decrement) */
;;;982      /* AM = 1 (address is updated in vertical writing direction) */
;;;983      LCD_WriteReg(LCD_REG_3, 0x1018);
;;;984    #endif
;;;985    }
;;;986    
                          ENDP

                  LCD_DrawFullRect PROC
;;;994      */
;;;995    void LCD_DrawFullRect(uint16_t Xpos, uint16_t Ypos, uint16_t Width, uint16_t Height)
000a18  b5f0              PUSH     {r4-r7,lr}
;;;996    {
000a1a  4606              MOV      r6,r0
000a1c  460d              MOV      r5,r1
000a1e  4617              MOV      r7,r2
000a20  461c              MOV      r4,r3
;;;997      LCD_SetTextColor(TextColor);
000a22  48b3              LDR      r0,|L1.3312|
000a24  8800              LDRH     r0,[r0,#0]  ; TextColor
000a26  f7fffffe          BL       LCD_SetTextColor
;;;998    
;;;999      LCD_DrawLine(Xpos, Ypos, Width, LCD_DIR_HORIZONTAL);
000a2a  2300              MOVS     r3,#0
000a2c  463a              MOV      r2,r7
000a2e  4629              MOV      r1,r5
000a30  4630              MOV      r0,r6
000a32  f7fffffe          BL       LCD_DrawLine
;;;1000     LCD_DrawLine(Xpos, (Ypos+Height), Width, LCD_DIR_HORIZONTAL);
000a36  1928              ADDS     r0,r5,r4
000a38  b281              UXTH     r1,r0
000a3a  2300              MOVS     r3,#0
000a3c  463a              MOV      r2,r7
000a3e  4630              MOV      r0,r6
000a40  f7fffffe          BL       LCD_DrawLine
;;;1001     
;;;1002     LCD_DrawLine(Xpos, Ypos, Height, LCD_DIR_VERTICAL);
000a44  2301              MOVS     r3,#1
000a46  4622              MOV      r2,r4
000a48  4629              MOV      r1,r5
000a4a  4630              MOV      r0,r6
000a4c  f7fffffe          BL       LCD_DrawLine
;;;1003     LCD_DrawLine((Xpos+Width-1), Ypos, Height, LCD_DIR_VERTICAL);
000a50  19f1              ADDS     r1,r6,r7
000a52  1e49              SUBS     r1,r1,#1
000a54  b288              UXTH     r0,r1
000a56  2301              MOVS     r3,#1
000a58  4622              MOV      r2,r4
000a5a  4629              MOV      r1,r5
000a5c  f7fffffe          BL       LCD_DrawLine
;;;1004   
;;;1005     Height--;
000a60  1e60              SUBS     r0,r4,#1
000a62  b284              UXTH     r4,r0
;;;1006     Ypos++;
000a64  1c68              ADDS     r0,r5,#1
000a66  b285              UXTH     r5,r0
;;;1007   
;;;1008     LCD_SetTextColor(BackColor);
000a68  48a2              LDR      r0,|L1.3316|
000a6a  8800              LDRH     r0,[r0,#0]  ; BackColor
000a6c  f7fffffe          BL       LCD_SetTextColor
;;;1009   
;;;1010     while(Height--)
000a70  e007              B        |L1.2690|
                  |L1.2674|
;;;1011     {
;;;1012       LCD_DrawLine(Xpos, Ypos++, Width, LCD_DIR_HORIZONTAL);    
000a72  4629              MOV      r1,r5
000a74  1c6a              ADDS     r2,r5,#1
000a76  b295              UXTH     r5,r2
000a78  2300              MOVS     r3,#0
000a7a  463a              MOV      r2,r7
000a7c  4630              MOV      r0,r6
000a7e  f7fffffe          BL       LCD_DrawLine
                  |L1.2690|
000a82  1e20              SUBS     r0,r4,#0              ;1010
000a84  f1a40101          SUB      r1,r4,#1              ;1010
000a88  b28c              UXTH     r4,r1                 ;1010
000a8a  d1f2              BNE      |L1.2674|
;;;1013     }
;;;1014   
;;;1015     LCD_SetTextColor(TextColor);
000a8c  4898              LDR      r0,|L1.3312|
000a8e  8800              LDRH     r0,[r0,#0]  ; TextColor
000a90  f7fffffe          BL       LCD_SetTextColor
;;;1016   }
000a94  bdf0              POP      {r4-r7,pc}
;;;1017   
                          ENDP

                  LCD_DrawFullCircle PROC
;;;1024     */
;;;1025   void LCD_DrawFullCircle(uint16_t Xpos, uint16_t Ypos, uint16_t Radius)
000a96  e92d43f0          PUSH     {r4-r9,lr}
;;;1026   {
000a9a  4606              MOV      r6,r0
000a9c  460f              MOV      r7,r1
000a9e  4690              MOV      r8,r2
;;;1027     int32_t  D;    /* Decision Variable */ 
;;;1028     uint32_t  CurX;/* Current X Value */
;;;1029     uint32_t  CurY;/* Current Y Value */ 
;;;1030     
;;;1031     D = 3 - (Radius << 1);
000aa0  2003              MOVS     r0,#3
000aa2  eba00948          SUB      r9,r0,r8,LSL #1
;;;1032   
;;;1033     CurX = 0;
000aa6  2400              MOVS     r4,#0
;;;1034     CurY = Radius;
000aa8  4645              MOV      r5,r8
;;;1035     
;;;1036     LCD_SetTextColor(BackColor);
000aaa  4892              LDR      r0,|L1.3316|
000aac  8800              LDRH     r0,[r0,#0]  ; BackColor
000aae  f7fffffe          BL       LCD_SetTextColor
;;;1037   
;;;1038     while (CurX <= CurY)
000ab2  e034              B        |L1.2846|
                  |L1.2740|
;;;1039     {
;;;1040       if(CurY > 0) 
000ab4  b18d              CBZ      r5,|L1.2778|
;;;1041       {
;;;1042         LCD_DrawLine(Xpos - CurX, Ypos + CurY, 2*CurY, LCD_DIR_HORIZONTAL);
000ab6  046b              LSLS     r3,r5,#17
000ab8  0c1a              LSRS     r2,r3,#16
000aba  197b              ADDS     r3,r7,r5
000abc  b299              UXTH     r1,r3
000abe  1b33              SUBS     r3,r6,r4
000ac0  b298              UXTH     r0,r3
000ac2  2300              MOVS     r3,#0
000ac4  f7fffffe          BL       LCD_DrawLine
;;;1043         LCD_DrawLine(Xpos + CurX, Ypos + CurY, 2*CurY, LCD_DIR_HORIZONTAL);
000ac8  046b              LSLS     r3,r5,#17
000aca  0c1a              LSRS     r2,r3,#16
000acc  197b              ADDS     r3,r7,r5
000ace  b299              UXTH     r1,r3
000ad0  1933              ADDS     r3,r6,r4
000ad2  b298              UXTH     r0,r3
000ad4  2300              MOVS     r3,#0
000ad6  f7fffffe          BL       LCD_DrawLine
                  |L1.2778|
;;;1044       }
;;;1045   
;;;1046       if(CurX > 0) 
000ada  b18c              CBZ      r4,|L1.2816|
;;;1047       {
;;;1048         LCD_DrawLine(Xpos - CurY, Ypos + CurX, 2*CurX, LCD_DIR_HORIZONTAL);
000adc  0463              LSLS     r3,r4,#17
000ade  0c1a              LSRS     r2,r3,#16
000ae0  193b              ADDS     r3,r7,r4
000ae2  b299              UXTH     r1,r3
000ae4  1b73              SUBS     r3,r6,r5
000ae6  b298              UXTH     r0,r3
000ae8  2300              MOVS     r3,#0
000aea  f7fffffe          BL       LCD_DrawLine
;;;1049         LCD_DrawLine(Xpos + CurY, Ypos + CurX, 2*CurX, LCD_DIR_HORIZONTAL);
000aee  0463              LSLS     r3,r4,#17
000af0  0c1a              LSRS     r2,r3,#16
000af2  193b              ADDS     r3,r7,r4
000af4  b299              UXTH     r1,r3
000af6  1973              ADDS     r3,r6,r5
000af8  b298              UXTH     r0,r3
000afa  2300              MOVS     r3,#0
000afc  f7fffffe          BL       LCD_DrawLine
                  |L1.2816|
;;;1050       }
;;;1051       if (D < 0)
000b00  f1b90f00          CMP      r9,#0
000b04  da04              BGE      |L1.2832|
;;;1052       { 
;;;1053         D += (CurX << 2) + 6;
000b06  2006              MOVS     r0,#6
000b08  eb000084          ADD      r0,r0,r4,LSL #2
000b0c  4481              ADD      r9,r9,r0
000b0e  e005              B        |L1.2844|
                  |L1.2832|
;;;1054       }
;;;1055       else
;;;1056       {
;;;1057         D += ((CurX - CurY) << 2) + 10;
000b10  1b60              SUBS     r0,r4,r5
000b12  210a              MOVS     r1,#0xa
000b14  eb010080          ADD      r0,r1,r0,LSL #2
000b18  4481              ADD      r9,r9,r0
;;;1058         CurY--;
000b1a  1e6d              SUBS     r5,r5,#1
                  |L1.2844|
;;;1059       }
;;;1060       CurX++;
000b1c  1c64              ADDS     r4,r4,#1
                  |L1.2846|
000b1e  42ac              CMP      r4,r5                 ;1038
000b20  d9c8              BLS      |L1.2740|
;;;1061     }
;;;1062   
;;;1063     LCD_SetTextColor(TextColor);
000b22  4873              LDR      r0,|L1.3312|
000b24  8800              LDRH     r0,[r0,#0]  ; TextColor
000b26  f7fffffe          BL       LCD_SetTextColor
;;;1064     LCD_DrawCircle(Xpos, Ypos, Radius);
000b2a  4642              MOV      r2,r8
000b2c  4639              MOV      r1,r7
000b2e  4630              MOV      r0,r6
000b30  f7fffffe          BL       LCD_DrawCircle
;;;1065   }
000b34  e8bd83f0          POP      {r4-r9,pc}
;;;1066   
                          ENDP

                  LCD_DrawUniLine PROC
;;;1074     */
;;;1075   void LCD_DrawUniLine(uint16_t x1, uint16_t y1, uint16_t x2, uint16_t y2)
000b38  e92d4ff0          PUSH     {r4-r11,lr}
;;;1076   {
000b3c  b089              SUB      sp,sp,#0x24
000b3e  4605              MOV      r5,r0
000b40  460e              MOV      r6,r1
000b42  4691              MOV      r9,r2
000b44  469a              MOV      r10,r3
;;;1077     int16_t deltax = 0, deltay = 0, x = 0, y = 0, xinc1 = 0, xinc2 = 0, 
000b46  2700              MOVS     r7,#0
000b48  46b8              MOV      r8,r7
000b4a  2000              MOVS     r0,#0
000b4c  9008              STR      r0,[sp,#0x20]
000b4e  9007              STR      r0,[sp,#0x1c]
000b50  9006              STR      r0,[sp,#0x18]
000b52  9005              STR      r0,[sp,#0x14]
;;;1078     yinc1 = 0, yinc2 = 0, den = 0, num = 0, numadd = 0, numpixels = 0, 
000b54  9004              STR      r0,[sp,#0x10]
000b56  9003              STR      r0,[sp,#0xc]
000b58  2400              MOVS     r4,#0
000b5a  4683              MOV      r11,r0
000b5c  9002              STR      r0,[sp,#8]
000b5e  9001              STR      r0,[sp,#4]
;;;1079     curpixel = 0;
000b60  9000              STR      r0,[sp,#0]
;;;1080     
;;;1081     deltax = ABS(x2 - x1);        /* The difference between the x's */
000b62  eba90005          SUB      r0,r9,r5
000b66  2800              CMP      r0,#0
000b68  dd02              BLE      |L1.2928|
000b6a  eba90005          SUB      r0,r9,r5
000b6e  e001              B        |L1.2932|
                  |L1.2928|
000b70  eba50009          SUB      r0,r5,r9
                  |L1.2932|
000b74  b207              SXTH     r7,r0
;;;1082     deltay = ABS(y2 - y1);        /* The difference between the y's */
000b76  ebaa0006          SUB      r0,r10,r6
000b7a  2800              CMP      r0,#0
000b7c  dd02              BLE      |L1.2948|
000b7e  ebaa0006          SUB      r0,r10,r6
000b82  e001              B        |L1.2952|
                  |L1.2948|
000b84  eba6000a          SUB      r0,r6,r10
                  |L1.2952|
000b88  fa0ff880          SXTH     r8,r0
;;;1083     x = x1;                       /* Start x off at the first pixel */
000b8c  b228              SXTH     r0,r5
000b8e  9008              STR      r0,[sp,#0x20]
;;;1084     y = y1;                       /* Start y off at the first pixel */
000b90  b230              SXTH     r0,r6
000b92  9007              STR      r0,[sp,#0x1c]
;;;1085     
;;;1086     if (x2 >= x1)                 /* The x-values are increasing */
000b94  45a9              CMP      r9,r5
000b96  db03              BLT      |L1.2976|
;;;1087     {
;;;1088       xinc1 = 1;
000b98  2001              MOVS     r0,#1
000b9a  9006              STR      r0,[sp,#0x18]
;;;1089       xinc2 = 1;
000b9c  9005              STR      r0,[sp,#0x14]
000b9e  e003              B        |L1.2984|
                  |L1.2976|
;;;1090     }
;;;1091     else                          /* The x-values are decreasing */
;;;1092     {
;;;1093       xinc1 = -1;
000ba0  f04f30ff          MOV      r0,#0xffffffff
000ba4  9006              STR      r0,[sp,#0x18]
;;;1094       xinc2 = -1;
000ba6  9005              STR      r0,[sp,#0x14]
                  |L1.2984|
;;;1095     }
;;;1096     
;;;1097     if (y2 >= y1)                 /* The y-values are increasing */
000ba8  45b2              CMP      r10,r6
000baa  db03              BLT      |L1.2996|
;;;1098     {
;;;1099       yinc1 = 1;
000bac  2001              MOVS     r0,#1
000bae  9004              STR      r0,[sp,#0x10]
;;;1100       yinc2 = 1;
000bb0  9003              STR      r0,[sp,#0xc]
000bb2  e003              B        |L1.3004|
                  |L1.2996|
;;;1101     }
;;;1102     else                          /* The y-values are decreasing */
;;;1103     {
;;;1104       yinc1 = -1;
000bb4  f04f30ff          MOV      r0,#0xffffffff
000bb8  9004              STR      r0,[sp,#0x10]
;;;1105       yinc2 = -1;
000bba  9003              STR      r0,[sp,#0xc]
                  |L1.3004|
;;;1106     }
;;;1107     
;;;1108     if (deltax >= deltay)         /* There is at least one x-value for every y-value */
000bbc  4547              CMP      r7,r8
000bbe  db0d              BLT      |L1.3036|
;;;1109     {
;;;1110       xinc1 = 0;                  /* Don't change the x when numerator >= denominator */
000bc0  2000              MOVS     r0,#0
000bc2  9006              STR      r0,[sp,#0x18]
;;;1111       yinc2 = 0;                  /* Don't change the y for every iteration */
000bc4  9003              STR      r0,[sp,#0xc]
;;;1112       den = deltax;
000bc6  463c              MOV      r4,r7
;;;1113       num = deltax / 2;
000bc8  4638              MOV      r0,r7
000bca  eb0771d0          ADD      r1,r7,r0,LSR #31
000bce  1049              ASRS     r1,r1,#1
000bd0  fa0ffb81          SXTH     r11,r1
;;;1114       numadd = deltay;
000bd4  f8cd8008          STR      r8,[sp,#8]
;;;1115       numpixels = deltax;         /* There are more x-values than y-values */
000bd8  9701              STR      r7,[sp,#4]
000bda  e00c              B        |L1.3062|
                  |L1.3036|
;;;1116     }
;;;1117     else                          /* There is at least one y-value for every x-value */
;;;1118     {
;;;1119       xinc2 = 0;                  /* Don't change the x for every iteration */
000bdc  2000              MOVS     r0,#0
000bde  9005              STR      r0,[sp,#0x14]
;;;1120       yinc1 = 0;                  /* Don't change the y when numerator >= denominator */
000be0  9004              STR      r0,[sp,#0x10]
;;;1121       den = deltay;
000be2  4644              MOV      r4,r8
;;;1122       num = deltay / 2;
000be4  4640              MOV      r0,r8
000be6  eb0871d0          ADD      r1,r8,r0,LSR #31
000bea  1049              ASRS     r1,r1,#1
000bec  fa0ffb81          SXTH     r11,r1
;;;1123       numadd = deltax;
000bf0  9702              STR      r7,[sp,#8]
;;;1124       numpixels = deltay;         /* There are more y-values than x-values */
000bf2  f8cd8004          STR      r8,[sp,#4]
                  |L1.3062|
;;;1125     }
;;;1126     
;;;1127     for (curpixel = 0; curpixel <= numpixels; curpixel++)
000bf6  2000              MOVS     r0,#0
000bf8  9000              STR      r0,[sp,#0]
000bfa  e025              B        |L1.3144|
                  |L1.3068|
;;;1128     {
;;;1129       PutPixel(x, y);             /* Draw the current pixel */
000bfc  e9dd1007          LDRD     r1,r0,[sp,#0x1c]
000c00  f7fffffe          BL       PutPixel
;;;1130       num += numadd;              /* Increase the numerator by the top of the fraction */
000c04  9802              LDR      r0,[sp,#8]
000c06  4458              ADD      r0,r0,r11
000c08  fa0ffb80          SXTH     r11,r0
;;;1131       if (num >= den)             /* Check if numerator >= denominator */
000c0c  45a3              CMP      r11,r4
000c0e  db0d              BLT      |L1.3116|
;;;1132       {
;;;1133         num -= den;               /* Calculate the new numerator value */
000c10  ebab0004          SUB      r0,r11,r4
000c14  fa0ffb80          SXTH     r11,r0
;;;1134         x += xinc1;               /* Change the x as appropriate */
000c18  9906              LDR      r1,[sp,#0x18]
000c1a  9808              LDR      r0,[sp,#0x20]
000c1c  4408              ADD      r0,r0,r1
000c1e  b200              SXTH     r0,r0
000c20  9008              STR      r0,[sp,#0x20]
;;;1135         y += yinc1;               /* Change the y as appropriate */
000c22  9904              LDR      r1,[sp,#0x10]
000c24  9807              LDR      r0,[sp,#0x1c]
000c26  4408              ADD      r0,r0,r1
000c28  b200              SXTH     r0,r0
000c2a  9007              STR      r0,[sp,#0x1c]
                  |L1.3116|
;;;1136       }
;;;1137       x += xinc2;                 /* Change the x as appropriate */
000c2c  9905              LDR      r1,[sp,#0x14]
000c2e  9808              LDR      r0,[sp,#0x20]
000c30  4408              ADD      r0,r0,r1
000c32  b200              SXTH     r0,r0
000c34  9008              STR      r0,[sp,#0x20]
;;;1138       y += yinc2;                 /* Change the y as appropriate */
000c36  9903              LDR      r1,[sp,#0xc]
000c38  9807              LDR      r0,[sp,#0x1c]
000c3a  4408              ADD      r0,r0,r1
000c3c  b200              SXTH     r0,r0
000c3e  9007              STR      r0,[sp,#0x1c]
000c40  9800              LDR      r0,[sp,#0]            ;1127
000c42  1c40              ADDS     r0,r0,#1              ;1127
000c44  b200              SXTH     r0,r0                 ;1127
000c46  9000              STR      r0,[sp,#0]            ;1127
                  |L1.3144|
000c48  e9dd0100          LDRD     r0,r1,[sp,#0]         ;1127
000c4c  4288              CMP      r0,r1                 ;1127
000c4e  ddd5              BLE      |L1.3068|
;;;1139     }
;;;1140   }
000c50  b009              ADD      sp,sp,#0x24
000c52  e8bd8ff0          POP      {r4-r11,pc}
;;;1141   
                          ENDP

                  LCD_PolyLine PROC
;;;1147     */
;;;1148   void LCD_PolyLine(pPoint Points, uint16_t PointCount)
000c56  e92d41f0          PUSH     {r4-r8,lr}
;;;1149   {
000c5a  4604              MOV      r4,r0
000c5c  460d              MOV      r5,r1
;;;1150     int16_t X = 0, Y = 0;
000c5e  2600              MOVS     r6,#0
000c60  2700              MOVS     r7,#0
;;;1151   
;;;1152     if(PointCount < 2)
000c62  2d02              CMP      r5,#2
000c64  da01              BGE      |L1.3178|
                  |L1.3174|
;;;1153     {
;;;1154       return;
;;;1155     }
;;;1156   
;;;1157     while(--PointCount)
;;;1158     {
;;;1159       X = Points->X;
;;;1160       Y = Points->Y;
;;;1161       Points++;
;;;1162       LCD_DrawUniLine(X, Y, Points->X, Points->Y);
;;;1163     }
;;;1164   }
000c66  e8bd81f0          POP      {r4-r8,pc}
                  |L1.3178|
000c6a  e010              B        |L1.3214|
                  |L1.3180|
000c6c  f9b46000          LDRSH    r6,[r4,#0]            ;1159
000c70  f9b47002          LDRSH    r7,[r4,#2]            ;1160
000c74  1d24              ADDS     r4,r4,#4              ;1161
000c76  f8b4c002          LDRH     r12,[r4,#2]           ;1162
000c7a  fa1ff38c          UXTH     r3,r12                ;1162
000c7e  f8b4c000          LDRH     r12,[r4,#0]           ;1162
000c82  fa1ff28c          UXTH     r2,r12                ;1162
000c86  b2b9              UXTH     r1,r7                 ;1162
000c88  b2b0              UXTH     r0,r6                 ;1162
000c8a  f7fffffe          BL       LCD_DrawUniLine
                  |L1.3214|
000c8e  1e68              SUBS     r0,r5,#1              ;1157
000c90  b280              UXTH     r0,r0                 ;1157
000c92  1e05              SUBS     r5,r0,#0              ;1157
000c94  d1ea              BNE      |L1.3180|
000c96  bf00              NOP      
000c98  e7e5              B        |L1.3174|
;;;1165   
                          ENDP

                  LCD_PolyLineRelativeClosed PROC
;;;1173     */
;;;1174   static void LCD_PolyLineRelativeClosed(pPoint Points, uint16_t PointCount, uint16_t Closed)
000c9a  e92d47f0          PUSH     {r4-r10,lr}
;;;1175   {
000c9e  4604              MOV      r4,r0
000ca0  460f              MOV      r7,r1
000ca2  4690              MOV      r8,r2
;;;1176     int16_t X = 0, Y = 0;
000ca4  2500              MOVS     r5,#0
000ca6  2600              MOVS     r6,#0
;;;1177     pPoint First = Points;
000ca8  46a1              MOV      r9,r4
;;;1178   
;;;1179     if(PointCount < 2)
000caa  2f02              CMP      r7,#2
000cac  da01              BGE      |L1.3250|
                  |L1.3246|
;;;1180     {
;;;1181       return;
;;;1182     }  
;;;1183     X = Points->X;
;;;1184     Y = Points->Y;
;;;1185     while(--PointCount)
;;;1186     {
;;;1187       Points++;
;;;1188       LCD_DrawUniLine(X, Y, X + Points->X, Y + Points->Y);
;;;1189       X = X + Points->X;
;;;1190       Y = Y + Points->Y;
;;;1191     }
;;;1192     if(Closed)
;;;1193     {
;;;1194       LCD_DrawUniLine(First->X, First->Y, X, Y);
;;;1195     }  
;;;1196   }
000cae  e8bd87f0          POP      {r4-r10,pc}
                  |L1.3250|
000cb2  f9b45000          LDRSH    r5,[r4,#0]            ;1183
000cb6  f9b46002          LDRSH    r6,[r4,#2]            ;1184
000cba  e014              B        |L1.3302|
                  |L1.3260|
000cbc  1d24              ADDS     r4,r4,#4              ;1187
000cbe  f8b4c002          LDRH     r12,[r4,#2]           ;1188
000cc2  44b4              ADD      r12,r12,r6            ;1188
000cc4  fa1ff38c          UXTH     r3,r12                ;1188
000cc8  f8b4c000          LDRH     r12,[r4,#0]           ;1188
000ccc  44ac              ADD      r12,r12,r5            ;1188
000cce  fa1ff28c          UXTH     r2,r12                ;1188
000cd2  b2b1              UXTH     r1,r6                 ;1188
000cd4  b2a8              UXTH     r0,r5                 ;1188
000cd6  f7fffffe          BL       LCD_DrawUniLine
000cda  8820              LDRH     r0,[r4,#0]            ;1189
000cdc  4428              ADD      r0,r0,r5              ;1189
000cde  b205              SXTH     r5,r0                 ;1189
000ce0  8860              LDRH     r0,[r4,#2]            ;1190
000ce2  4430              ADD      r0,r0,r6              ;1190
000ce4  b206              SXTH     r6,r0                 ;1190
                  |L1.3302|
000ce6  1e78              SUBS     r0,r7,#1              ;1185
000ce8  b280              UXTH     r0,r0                 ;1185
000cea  1e07              SUBS     r7,r0,#0              ;1185
000cec  d1e6              BNE      |L1.3260|
000cee  e003              B        |L1.3320|
                  |L1.3312|
                          DCD      TextColor
                  |L1.3316|
                          DCD      BackColor
                  |L1.3320|
000cf8  f1b80f00          CMP      r8,#0                 ;1192
000cfc  d00b              BEQ      |L1.3350|
000cfe  b2b3              UXTH     r3,r6                 ;1194
000d00  b2aa              UXTH     r2,r5                 ;1194
000d02  f8b9c002          LDRH     r12,[r9,#2]           ;1194
000d06  fa1ff18c          UXTH     r1,r12                ;1194
000d0a  f8b9c000          LDRH     r12,[r9,#0]           ;1194
000d0e  fa1ff08c          UXTH     r0,r12                ;1194
000d12  f7fffffe          BL       LCD_DrawUniLine
                  |L1.3350|
000d16  bf00              NOP      
000d18  e7c9              B        |L1.3246|
;;;1197   
                          ENDP

                  LCD_ClosedPolyLine PROC
;;;1203     */
;;;1204   void LCD_ClosedPolyLine(pPoint Points, uint16_t PointCount)
000d1a  b570              PUSH     {r4-r6,lr}
;;;1205   {
000d1c  4604              MOV      r4,r0
000d1e  460d              MOV      r5,r1
;;;1206     LCD_PolyLine(Points, PointCount);
000d20  4629              MOV      r1,r5
000d22  4620              MOV      r0,r4
000d24  f7fffffe          BL       LCD_PolyLine
;;;1207     LCD_DrawUniLine(Points->X, Points->Y, (Points+PointCount-1)->X, (Points+PointCount-1)->Y);
000d28  eb040685          ADD      r6,r4,r5,LSL #2
000d2c  f8366c02          LDRH     r6,[r6,#-2]
000d30  b2b3              UXTH     r3,r6
000d32  eb040685          ADD      r6,r4,r5,LSL #2
000d36  f8366c04          LDRH     r6,[r6,#-4]
000d3a  b2b2              UXTH     r2,r6
000d3c  8866              LDRH     r6,[r4,#2]
000d3e  b2b1              UXTH     r1,r6
000d40  8826              LDRH     r6,[r4,#0]
000d42  b2b0              UXTH     r0,r6
000d44  f7fffffe          BL       LCD_DrawUniLine
;;;1208   }
000d48  bd70              POP      {r4-r6,pc}
;;;1209   
                          ENDP

                  LCD_PolyLineRelative PROC
;;;1215     */
;;;1216   void LCD_PolyLineRelative(pPoint Points, uint16_t PointCount)
000d4a  b570              PUSH     {r4-r6,lr}
;;;1217   {
000d4c  4604              MOV      r4,r0
000d4e  460d              MOV      r5,r1
;;;1218     LCD_PolyLineRelativeClosed(Points, PointCount, 0);
000d50  2200              MOVS     r2,#0
000d52  4629              MOV      r1,r5
000d54  4620              MOV      r0,r4
000d56  f7fffffe          BL       LCD_PolyLineRelativeClosed
;;;1219   }
000d5a  bd70              POP      {r4-r6,pc}
;;;1220   
                          ENDP

                  LCD_ClosedPolyLineRelative PROC
;;;1226     */
;;;1227   void LCD_ClosedPolyLineRelative(pPoint Points, uint16_t PointCount)
000d5c  b570              PUSH     {r4-r6,lr}
;;;1228   {
000d5e  4604              MOV      r4,r0
000d60  460d              MOV      r5,r1
;;;1229     LCD_PolyLineRelativeClosed(Points, PointCount, 1);
000d62  2201              MOVS     r2,#1
000d64  4629              MOV      r1,r5
000d66  4620              MOV      r0,r4
000d68  f7fffffe          BL       LCD_PolyLineRelativeClosed
;;;1230   }
000d6c  bd70              POP      {r4-r6,pc}
;;;1231   
                          ENDP

                  LCD_FillPolyLine PROC
;;;1238     */
;;;1239   void LCD_FillPolyLine(pPoint Points, uint16_t PointCount)
000d6e  e92d4ff0          PUSH     {r4-r11,lr}
;;;1240   {
000d72  ed2d8b04          VPUSH    {d8-d9}
000d76  b0e9              SUB      sp,sp,#0x1a4
000d78  4605              MOV      r5,r0
000d7a  4688              MOV      r8,r1
;;;1241     /*  public-domain code by Darel Rex Finley, 2007 */
;;;1242     uint16_t  nodes = 0, nodeX[MAX_POLY_CORNERS], pixelX = 0, pixelY = 0, i = 0,
000d7c  2000              MOVS     r0,#0
000d7e  9068              STR      r0,[sp,#0x1a0]
000d80  4682              MOV      r10,r0
000d82  2600              MOVS     r6,#0
000d84  2400              MOVS     r4,#0
;;;1243     j = 0, swap = 0;
000d86  2700              MOVS     r7,#0
000d88  9003              STR      r0,[sp,#0xc]
;;;1244     uint16_t  IMAGE_LEFT = 0, IMAGE_RIGHT = 0, IMAGE_TOP = 0, IMAGE_BOTTOM = 0;
000d8a  4681              MOV      r9,r0
000d8c  4683              MOV      r11,r0
000d8e  9002              STR      r0,[sp,#8]
000d90  9001              STR      r0,[sp,#4]
;;;1245   
;;;1246     IMAGE_LEFT = IMAGE_RIGHT = Points->X;
000d92  8828              LDRH     r0,[r5,#0]
000d94  b280              UXTH     r0,r0
000d96  4683              MOV      r11,r0
000d98  4681              MOV      r9,r0
;;;1247     IMAGE_TOP= IMAGE_BOTTOM = Points->Y;
000d9a  8868              LDRH     r0,[r5,#2]
000d9c  b280              UXTH     r0,r0
000d9e  9001              STR      r0,[sp,#4]
000da0  9002              STR      r0,[sp,#8]
;;;1248   
;;;1249     for(i = 1; i < PointCount; i++)
000da2  2401              MOVS     r4,#1
000da4  e017              B        |L1.3542|
                  |L1.3494|
;;;1250     {
;;;1251       pixelX = POLY_X(i);
000da6  eb050084          ADD      r0,r5,r4,LSL #2
000daa  8840              LDRH     r0,[r0,#2]
000dac  fa1ffa80          UXTH     r10,r0
;;;1252       if(pixelX < IMAGE_LEFT)
000db0  45ca              CMP      r10,r9
000db2  da00              BGE      |L1.3510|
;;;1253       {
;;;1254         IMAGE_LEFT = pixelX;
000db4  46d1              MOV      r9,r10
                  |L1.3510|
;;;1255       }
;;;1256       if(pixelX > IMAGE_RIGHT)
000db6  45da              CMP      r10,r11
000db8  dd00              BLE      |L1.3516|
;;;1257       {
;;;1258         IMAGE_RIGHT = pixelX;
000dba  46d3              MOV      r11,r10
                  |L1.3516|
;;;1259       }
;;;1260       
;;;1261       pixelY = POLY_Y(i);
000dbc  f8350024          LDRH     r0,[r5,r4,LSL #2]
000dc0  b286              UXTH     r6,r0
;;;1262       if(pixelY < IMAGE_TOP)
000dc2  9802              LDR      r0,[sp,#8]
000dc4  4286              CMP      r6,r0
000dc6  da00              BGE      |L1.3530|
;;;1263       { 
;;;1264         IMAGE_TOP = pixelY;
000dc8  9602              STR      r6,[sp,#8]
                  |L1.3530|
;;;1265       }
;;;1266       if(pixelY > IMAGE_BOTTOM)
000dca  9801              LDR      r0,[sp,#4]
000dcc  4286              CMP      r6,r0
000dce  dd00              BLE      |L1.3538|
;;;1267       {
;;;1268         IMAGE_BOTTOM = pixelY;
000dd0  9601              STR      r6,[sp,#4]
                  |L1.3538|
000dd2  1c60              ADDS     r0,r4,#1              ;1249
000dd4  b284              UXTH     r4,r0                 ;1249
                  |L1.3542|
000dd6  4544              CMP      r4,r8                 ;1249
000dd8  dbe5              BLT      |L1.3494|
;;;1269       }
;;;1270     }
;;;1271     
;;;1272     LCD_SetTextColor(BackColor);  
000dda  4878              LDR      r0,|L1.4028|
000ddc  8800              LDRH     r0,[r0,#0]  ; BackColor
000dde  f7fffffe          BL       LCD_SetTextColor
;;;1273   
;;;1274     /*  Loop through the rows of the image. */
;;;1275     for (pixelY = IMAGE_TOP; pixelY < IMAGE_BOTTOM; pixelY++) 
000de2  9e02              LDR      r6,[sp,#8]
000de4  e0dc              B        |L1.4000|
                  |L1.3558|
;;;1276     {  
;;;1277       /* Build a list of nodes. */
;;;1278       nodes = 0; j = PointCount-1;
000de6  2000              MOVS     r0,#0
000de8  9068              STR      r0,[sp,#0x1a0]
000dea  f1a80001          SUB      r0,r8,#1
000dee  b287              UXTH     r7,r0
;;;1279   
;;;1280       for (i = 0; i < PointCount; i++) 
000df0  2400              MOVS     r4,#0
000df2  e062              B        |L1.3770|
                  |L1.3572|
;;;1281       {
;;;1282         if (((POLY_Y(i)<(double) pixelY) && (POLY_Y(j)>=(double) pixelY)) || \
000df4  4630              MOV      r0,r6
000df6  f7fffffe          BL       __aeabi_ui2d
000dfa  ec410b18          VMOV     d8,r0,r1
000dfe  f9350024          LDRSH    r0,[r5,r4,LSL #2]
000e02  f7fffffe          BL       __aeabi_i2d
000e06  ec410b19          VMOV     d9,r0,r1
000e0a  ec532b18          VMOV     r2,r3,d8
000e0e  f7fffffe          BL       __aeabi_cdcmple
000e12  d20f              BCS      |L1.3636|
000e14  4630              MOV      r0,r6
000e16  f7fffffe          BL       __aeabi_ui2d
000e1a  ec410b18          VMOV     d8,r0,r1
000e1e  f9350027          LDRSH    r0,[r5,r7,LSL #2]
000e22  f7fffffe          BL       __aeabi_i2d
000e26  ec410b19          VMOV     d9,r0,r1
000e2a  ec532b18          VMOV     r2,r3,d8
000e2e  f7fffffe          BL       __aeabi_cdrcmple
000e32  d91f              BLS      |L1.3700|
                  |L1.3636|
;;;1283             ((POLY_Y(j)<(double) pixelY) && (POLY_Y(i)>=(double) pixelY)))
000e34  4630              MOV      r0,r6
000e36  f7fffffe          BL       __aeabi_ui2d
000e3a  ec410b18          VMOV     d8,r0,r1
000e3e  f9350027          LDRSH    r0,[r5,r7,LSL #2]
000e42  f7fffffe          BL       __aeabi_i2d
000e46  ec410b19          VMOV     d9,r0,r1
000e4a  ec532b18          VMOV     r2,r3,d8
000e4e  f7fffffe          BL       __aeabi_cdcmple
000e52  d22f              BCS      |L1.3764|
000e54  4630              MOV      r0,r6
000e56  f7fffffe          BL       __aeabi_ui2d
000e5a  ec410b18          VMOV     d8,r0,r1
000e5e  f9350024          LDRSH    r0,[r5,r4,LSL #2]
000e62  f7fffffe          BL       __aeabi_i2d
000e66  ec410b19          VMOV     d9,r0,r1
000e6a  ec532b18          VMOV     r2,r3,d8
000e6e  f7fffffe          BL       __aeabi_cdrcmple
000e72  d81f              BHI      |L1.3764|
                  |L1.3700|
;;;1284         {
;;;1285           nodeX[nodes++]=(int) (POLY_X(i)+((pixelY-POLY_Y(i))*(POLY_X(j)-POLY_X(i)))/(POLY_Y(j)-POLY_Y(i))); 
000e74  eb050087          ADD      r0,r5,r7,LSL #2
000e78  f9b00002          LDRSH    r0,[r0,#2]
000e7c  eb050184          ADD      r1,r5,r4,LSL #2
000e80  f9b11002          LDRSH    r1,[r1,#2]
000e84  1a40              SUBS     r0,r0,r1
000e86  f9351024          LDRSH    r1,[r5,r4,LSL #2]
000e8a  1a71              SUBS     r1,r6,r1
000e8c  4348              MULS     r0,r1,r0
000e8e  f9351027          LDRSH    r1,[r5,r7,LSL #2]
000e92  f9352024          LDRSH    r2,[r5,r4,LSL #2]
000e96  1a89              SUBS     r1,r1,r2
000e98  fb90f0f1          SDIV     r0,r0,r1
000e9c  eb050184          ADD      r1,r5,r4,LSL #2
000ea0  8849              LDRH     r1,[r1,#2]
000ea2  4408              ADD      r0,r0,r1
000ea4  b282              UXTH     r2,r0
000ea6  9868              LDR      r0,[sp,#0x1a0]
000ea8  1c41              ADDS     r1,r0,#1
000eaa  b289              UXTH     r1,r1
000eac  9168              STR      r1,[sp,#0x1a0]
000eae  a904              ADD      r1,sp,#0x10
000eb0  f8212010          STRH     r2,[r1,r0,LSL #1]
                  |L1.3764|
;;;1286         }
;;;1287         j = i; 
000eb4  4627              MOV      r7,r4
000eb6  1c60              ADDS     r0,r4,#1              ;1280
000eb8  b284              UXTH     r4,r0                 ;1280
                  |L1.3770|
000eba  4544              CMP      r4,r8                 ;1280
000ebc  db9a              BLT      |L1.3572|
;;;1288       }
;;;1289     
;;;1290       /* Sort the nodes, via a simple "Bubble" sort. */
;;;1291       i = 0;
000ebe  2400              MOVS     r4,#0
;;;1292       while (i < nodes-1) 
000ec0  e01c              B        |L1.3836|
                  |L1.3778|
;;;1293       {
;;;1294         if (nodeX[i]>nodeX[i+1]) 
000ec2  a804              ADD      r0,sp,#0x10
000ec4  f8301014          LDRH     r1,[r0,r4,LSL #1]
000ec8  aa04              ADD      r2,sp,#0x10
000eca  1c60              ADDS     r0,r4,#1
000ecc  f8320010          LDRH     r0,[r2,r0,LSL #1]
000ed0  4281              CMP      r1,r0
000ed2  dd11              BLE      |L1.3832|
;;;1295         {
;;;1296           swap = nodeX[i]; 
000ed4  a804              ADD      r0,sp,#0x10
000ed6  f8300014          LDRH     r0,[r0,r4,LSL #1]
000eda  9003              STR      r0,[sp,#0xc]
;;;1297           nodeX[i] = nodeX[i+1]; 
000edc  a904              ADD      r1,sp,#0x10
000ede  1c60              ADDS     r0,r4,#1
000ee0  f8310010          LDRH     r0,[r1,r0,LSL #1]
000ee4  f8210014          STRH     r0,[r1,r4,LSL #1]
;;;1298           nodeX[i+1] = swap; 
000ee8  1c61              ADDS     r1,r4,#1
000eea  9803              LDR      r0,[sp,#0xc]
000eec  f8220011          STRH     r0,[r2,r1,LSL #1]
;;;1299           if(i)
000ef0  b124              CBZ      r4,|L1.3836|
;;;1300           {
;;;1301             i--; 
000ef2  1e60              SUBS     r0,r4,#1
000ef4  b284              UXTH     r4,r0
000ef6  e001              B        |L1.3836|
                  |L1.3832|
;;;1302           }
;;;1303         }
;;;1304         else 
;;;1305         {
;;;1306           i++;
000ef8  1c60              ADDS     r0,r4,#1
000efa  b284              UXTH     r4,r0
                  |L1.3836|
000efc  9868              LDR      r0,[sp,#0x1a0]        ;1292
000efe  1e40              SUBS     r0,r0,#1              ;1292
000f00  42a0              CMP      r0,r4                 ;1292
000f02  dcde              BGT      |L1.3778|
;;;1307         }
;;;1308       }
;;;1309     
;;;1310       /*  Fill the pixels between node pairs. */
;;;1311       for (i = 0; i < nodes; i+=2) 
000f04  2400              MOVS     r4,#0
000f06  e045              B        |L1.3988|
                  |L1.3848|
;;;1312       {
;;;1313         if(nodeX[i] >= IMAGE_RIGHT) 
000f08  a804              ADD      r0,sp,#0x10
000f0a  f8300014          LDRH     r0,[r0,r4,LSL #1]
000f0e  4558              CMP      r0,r11
000f10  db00              BLT      |L1.3860|
;;;1314         {
;;;1315           break;
000f12  e042              B        |L1.3994|
                  |L1.3860|
;;;1316         }
;;;1317         if(nodeX[i+1] > IMAGE_LEFT) 
000f14  a904              ADD      r1,sp,#0x10
000f16  1c60              ADDS     r0,r4,#1
000f18  f8310010          LDRH     r0,[r1,r0,LSL #1]
000f1c  4548              CMP      r0,r9
000f1e  dd37              BLE      |L1.3984|
;;;1318         {
;;;1319           if (nodeX[i] < IMAGE_LEFT)
000f20  a804              ADD      r0,sp,#0x10
000f22  f8300014          LDRH     r0,[r0,r4,LSL #1]
000f26  4548              CMP      r0,r9
000f28  da02              BGE      |L1.3888|
;;;1320           {
;;;1321             nodeX[i]=IMAGE_LEFT;
000f2a  a804              ADD      r0,sp,#0x10
000f2c  f8209014          STRH     r9,[r0,r4,LSL #1]
                  |L1.3888|
;;;1322           }
;;;1323           if(nodeX[i+1] > IMAGE_RIGHT)
000f30  a904              ADD      r1,sp,#0x10
000f32  1c60              ADDS     r0,r4,#1
000f34  f8310010          LDRH     r0,[r1,r0,LSL #1]
000f38  4558              CMP      r0,r11
000f3a  dd02              BLE      |L1.3906|
;;;1324           {
;;;1325             nodeX[i+1] = IMAGE_RIGHT;
000f3c  1c60              ADDS     r0,r4,#1
000f3e  f821b010          STRH     r11,[r1,r0,LSL #1]
                  |L1.3906|
;;;1326           }
;;;1327           LCD_SetTextColor(BackColor);
000f42  481e              LDR      r0,|L1.4028|
000f44  8800              LDRH     r0,[r0,#0]  ; BackColor
000f46  f7fffffe          BL       LCD_SetTextColor
;;;1328           LCD_DrawLine(pixelY, nodeX[i+1], nodeX[i+1] - nodeX[i], LCD_DIR_HORIZONTAL);
000f4a  ab04              ADD      r3,sp,#0x10
000f4c  1c60              ADDS     r0,r4,#1
000f4e  f8330010          LDRH     r0,[r3,r0,LSL #1]
000f52  f8333014          LDRH     r3,[r3,r4,LSL #1]
000f56  1ac0              SUBS     r0,r0,r3
000f58  b282              UXTH     r2,r0
000f5a  ab04              ADD      r3,sp,#0x10
000f5c  1c60              ADDS     r0,r4,#1
000f5e  f8331010          LDRH     r1,[r3,r0,LSL #1]
000f62  2300              MOVS     r3,#0
000f64  4630              MOV      r0,r6
000f66  f7fffffe          BL       LCD_DrawLine
;;;1329           LCD_SetTextColor(TextColor);
000f6a  4815              LDR      r0,|L1.4032|
000f6c  8800              LDRH     r0,[r0,#0]  ; TextColor
000f6e  f7fffffe          BL       LCD_SetTextColor
;;;1330           PutPixel(pixelY, nodeX[i+1]);
000f72  aa04              ADD      r2,sp,#0x10
000f74  1c60              ADDS     r0,r4,#1
000f76  f8320010          LDRH     r0,[r2,r0,LSL #1]
000f7a  b201              SXTH     r1,r0
000f7c  b230              SXTH     r0,r6
000f7e  f7fffffe          BL       PutPixel
;;;1331           PutPixel(pixelY, nodeX[i]);
000f82  a804              ADD      r0,sp,#0x10
000f84  f8300014          LDRH     r0,[r0,r4,LSL #1]
000f88  b201              SXTH     r1,r0
000f8a  b230              SXTH     r0,r6
000f8c  f7fffffe          BL       PutPixel
                  |L1.3984|
000f90  1ca0              ADDS     r0,r4,#2              ;1311
000f92  b284              UXTH     r4,r0                 ;1311
                  |L1.3988|
000f94  9868              LDR      r0,[sp,#0x1a0]        ;1311
000f96  4284              CMP      r4,r0                 ;1311
000f98  dbb6              BLT      |L1.3848|
                  |L1.3994|
000f9a  bf00              NOP                            ;1315
000f9c  1c70              ADDS     r0,r6,#1              ;1275
000f9e  b286              UXTH     r6,r0                 ;1275
                  |L1.4000|
000fa0  9801              LDR      r0,[sp,#4]            ;1275
000fa2  4286              CMP      r6,r0                 ;1275
000fa4  f6ffaf1f          BLT      |L1.3558|
;;;1332           /* for (j=nodeX[i]; j<nodeX[i+1]; j++) PutPixel(j,pixelY); */
;;;1333         }
;;;1334       }
;;;1335     } 
;;;1336     /* draw the edges */
;;;1337     LCD_SetTextColor(TextColor);
000fa8  4805              LDR      r0,|L1.4032|
000faa  8800              LDRH     r0,[r0,#0]  ; TextColor
000fac  f7fffffe          BL       LCD_SetTextColor
;;;1338   }
000fb0  b069              ADD      sp,sp,#0x1a4
000fb2  ecbd8b04          VPOP     {d8-d9}
000fb6  e8bd8ff0          POP      {r4-r11,pc}
;;;1339   
                          ENDP

000fba  0000              DCW      0x0000
                  |L1.4028|
                          DCD      BackColor
                  |L1.4032|
                          DCD      TextColor

                          AREA ||.constdata||, DATA, READONLY, ALIGN=1

                  ASCII16x24_Table
000000  00000000          DCW      0x0000,0x0000
000004  00000000          DCW      0x0000,0x0000
000008  00000000          DCW      0x0000,0x0000
00000c  00000000          DCW      0x0000,0x0000
000010  00000000          DCW      0x0000,0x0000
000014  00000000          DCW      0x0000,0x0000
000018  00000000          DCW      0x0000,0x0000
00001c  00000000          DCW      0x0000,0x0000
000020  00000000          DCW      0x0000,0x0000
000024  00000000          DCW      0x0000,0x0000
000028  00000000          DCW      0x0000,0x0000
00002c  00000000          DCW      0x0000,0x0000
000030  00000180          DCW      0x0000,0x0180
000034  01800180          DCW      0x0180,0x0180
000038  01800180          DCW      0x0180,0x0180
00003c  01800180          DCW      0x0180,0x0180
000040  01800180          DCW      0x0180,0x0180
000044  01800180          DCW      0x0180,0x0180
000048  01800180          DCW      0x0180,0x0180
00004c  00000000          DCW      0x0000,0x0000
000050  01800180          DCW      0x0180,0x0180
000054  00000000          DCW      0x0000,0x0000
000058  00000000          DCW      0x0000,0x0000
00005c  00000000          DCW      0x0000,0x0000
000060  00000000          DCW      0x0000,0x0000
000064  00cc00cc          DCW      0x00cc,0x00cc
000068  00cc00cc          DCW      0x00cc,0x00cc
00006c  00cc00cc          DCW      0x00cc,0x00cc
000070  00000000          DCW      0x0000,0x0000
000074  00000000          DCW      0x0000,0x0000
000078  00000000          DCW      0x0000,0x0000
00007c  00000000          DCW      0x0000,0x0000
000080  00000000          DCW      0x0000,0x0000
000084  00000000          DCW      0x0000,0x0000
000088  00000000          DCW      0x0000,0x0000
00008c  00000000          DCW      0x0000,0x0000
000090  00000000          DCW      0x0000,0x0000
000094  00000000          DCW      0x0000,0x0000
000098  00000000          DCW      0x0000,0x0000
00009c  0c600c60          DCW      0x0c60,0x0c60
0000a0  0c600630          DCW      0x0c60,0x0630
0000a4  06301ffe          DCW      0x0630,0x1ffe
0000a8  1ffe0630          DCW      0x1ffe,0x0630
0000ac  07380318          DCW      0x0738,0x0318
0000b0  1ffe1ffe          DCW      0x1ffe,0x1ffe
0000b4  03180318          DCW      0x0318,0x0318
0000b8  018c018c          DCW      0x018c,0x018c
0000bc  018c0000          DCW      0x018c,0x0000
0000c0  00000080          DCW      0x0000,0x0080
0000c4  03e00ff8          DCW      0x03e0,0x0ff8
0000c8  0e9c1c8c          DCW      0x0e9c,0x1c8c
0000cc  188c008c          DCW      0x188c,0x008c
0000d0  009801f8          DCW      0x0098,0x01f8
0000d4  07e00e80          DCW      0x07e0,0x0e80
0000d8  1c80188c          DCW      0x1c80,0x188c
0000dc  188c189c          DCW      0x188c,0x189c
0000e0  0cb80ff0          DCW      0x0cb8,0x0ff0
0000e4  03e00080          DCW      0x03e0,0x0080
0000e8  00800000          DCW      0x0080,0x0000
0000ec  00000000          DCW      0x0000,0x0000
0000f0  00000000          DCW      0x0000,0x0000
0000f4  0000180e          DCW      0x0000,0x180e
0000f8  0c1b0c11          DCW      0x0c1b,0x0c11
0000fc  06110611          DCW      0x0611,0x0611
000100  03110311          DCW      0x0311,0x0311
000104  019b018e          DCW      0x019b,0x018e
000108  38c06cc0          DCW      0x38c0,0x6cc0
00010c  44604460          DCW      0x4460,0x4460
000110  44304430          DCW      0x4430,0x4430
000114  44186c18          DCW      0x4418,0x6c18
000118  380c0000          DCW      0x380c,0x0000
00011c  00000000          DCW      0x0000,0x0000
000120  000001e0          DCW      0x0000,0x01e0
000124  03f00738          DCW      0x03f0,0x0738
000128  06180618          DCW      0x0618,0x0618
00012c  033001f0          DCW      0x0330,0x01f0
000130  00f000f8          DCW      0x00f0,0x00f8
000134  319c330e          DCW      0x319c,0x330e
000138  1e061c06          DCW      0x1e06,0x1c06
00013c  1c063f06          DCW      0x1c06,0x3f06
000140  73fc21f0          DCW      0x73fc,0x21f0
000144  00000000          DCW      0x0000,0x0000
000148  00000000          DCW      0x0000,0x0000
00014c  00000000          DCW      0x0000,0x0000
000150  00000000          DCW      0x0000,0x0000
000154  000c000c          DCW      0x000c,0x000c
000158  000c000c          DCW      0x000c,0x000c
00015c  000c000c          DCW      0x000c,0x000c
000160  00000000          DCW      0x0000,0x0000
000164  00000000          DCW      0x0000,0x0000
000168  00000000          DCW      0x0000,0x0000
00016c  00000000          DCW      0x0000,0x0000
000170  00000000          DCW      0x0000,0x0000
000174  00000000          DCW      0x0000,0x0000
000178  00000000          DCW      0x0000,0x0000
00017c  00000000          DCW      0x0000,0x0000
000180  00000200          DCW      0x0000,0x0200
000184  03000180          DCW      0x0300,0x0180
000188  00c000c0          DCW      0x00c0,0x00c0
00018c  00600060          DCW      0x0060,0x0060
000190  00300030          DCW      0x0030,0x0030
000194  00300030          DCW      0x0030,0x0030
000198  00300030          DCW      0x0030,0x0030
00019c  00300030          DCW      0x0030,0x0030
0001a0  00600060          DCW      0x0060,0x0060
0001a4  00c000c0          DCW      0x00c0,0x00c0
0001a8  01800300          DCW      0x0180,0x0300
0001ac  02000000          DCW      0x0200,0x0000
0001b0  00000020          DCW      0x0000,0x0020
0001b4  006000c0          DCW      0x0060,0x00c0
0001b8  01800180          DCW      0x0180,0x0180
0001bc  03000300          DCW      0x0300,0x0300
0001c0  06000600          DCW      0x0600,0x0600
0001c4  06000600          DCW      0x0600,0x0600
0001c8  06000600          DCW      0x0600,0x0600
0001cc  06000600          DCW      0x0600,0x0600
0001d0  03000300          DCW      0x0300,0x0300
0001d4  01800180          DCW      0x0180,0x0180
0001d8  00c00060          DCW      0x00c0,0x0060
0001dc  00200000          DCW      0x0020,0x0000
0001e0  00000000          DCW      0x0000,0x0000
0001e4  00000000          DCW      0x0000,0x0000
0001e8  00000000          DCW      0x0000,0x0000
0001ec  00c000c0          DCW      0x00c0,0x00c0
0001f0  06d807f8          DCW      0x06d8,0x07f8
0001f4  01e00330          DCW      0x01e0,0x0330
0001f8  07380000          DCW      0x0738,0x0000
0001fc  00000000          DCW      0x0000,0x0000
000200  00000000          DCW      0x0000,0x0000
000204  00000000          DCW      0x0000,0x0000
000208  00000000          DCW      0x0000,0x0000
00020c  00000000          DCW      0x0000,0x0000
000210  00000000          DCW      0x0000,0x0000
000214  00000000          DCW      0x0000,0x0000
000218  00000000          DCW      0x0000,0x0000
00021c  01800180          DCW      0x0180,0x0180
000220  01800180          DCW      0x0180,0x0180
000224  01803ffc          DCW      0x0180,0x3ffc
000228  3ffc0180          DCW      0x3ffc,0x0180
00022c  01800180          DCW      0x0180,0x0180
000230  01800180          DCW      0x0180,0x0180
000234  00000000          DCW      0x0000,0x0000
000238  00000000          DCW      0x0000,0x0000
00023c  00000000          DCW      0x0000,0x0000
000240  00000000          DCW      0x0000,0x0000
000244  00000000          DCW      0x0000,0x0000
000248  00000000          DCW      0x0000,0x0000
00024c  00000000          DCW      0x0000,0x0000
000250  00000000          DCW      0x0000,0x0000
000254  00000000          DCW      0x0000,0x0000
000258  00000000          DCW      0x0000,0x0000
00025c  00000000          DCW      0x0000,0x0000
000260  00000180          DCW      0x0000,0x0180
000264  01800100          DCW      0x0180,0x0100
000268  01000080          DCW      0x0100,0x0080
00026c  00000000          DCW      0x0000,0x0000
000270  00000000          DCW      0x0000,0x0000
000274  00000000          DCW      0x0000,0x0000
000278  00000000          DCW      0x0000,0x0000
00027c  00000000          DCW      0x0000,0x0000
000280  00000000          DCW      0x0000,0x0000
000284  00000000          DCW      0x0000,0x0000
000288  07e007e0          DCW      0x07e0,0x07e0
00028c  00000000          DCW      0x0000,0x0000
000290  00000000          DCW      0x0000,0x0000
000294  00000000          DCW      0x0000,0x0000
000298  00000000          DCW      0x0000,0x0000
00029c  00000000          DCW      0x0000,0x0000
0002a0  00000000          DCW      0x0000,0x0000
0002a4  00000000          DCW      0x0000,0x0000
0002a8  00000000          DCW      0x0000,0x0000
0002ac  00000000          DCW      0x0000,0x0000
0002b0  00000000          DCW      0x0000,0x0000
0002b4  00000000          DCW      0x0000,0x0000
0002b8  00000000          DCW      0x0000,0x0000
0002bc  00000000          DCW      0x0000,0x0000
0002c0  000000c0          DCW      0x0000,0x00c0
0002c4  00c00000          DCW      0x00c0,0x0000
0002c8  00000000          DCW      0x0000,0x0000
0002cc  00000000          DCW      0x0000,0x0000
0002d0  00000c00          DCW      0x0000,0x0c00
0002d4  0c000600          DCW      0x0c00,0x0600
0002d8  06000600          DCW      0x0600,0x0600
0002dc  03000300          DCW      0x0300,0x0300
0002e0  03000380          DCW      0x0300,0x0380
0002e4  01800180          DCW      0x0180,0x0180
0002e8  018000c0          DCW      0x0180,0x00c0
0002ec  00c000c0          DCW      0x00c0,0x00c0
0002f0  00600060          DCW      0x0060,0x0060
0002f4  00000000          DCW      0x0000,0x0000
0002f8  00000000          DCW      0x0000,0x0000
0002fc  00000000          DCW      0x0000,0x0000
000300  000003e0          DCW      0x0000,0x03e0
000304  07f00e38          DCW      0x07f0,0x0e38
000308  0c18180c          DCW      0x0c18,0x180c
00030c  180c180c          DCW      0x180c,0x180c
000310  180c180c          DCW      0x180c,0x180c
000314  180c180c          DCW      0x180c,0x180c
000318  180c180c          DCW      0x180c,0x180c
00031c  0c180e38          DCW      0x0c18,0x0e38
000320  07f003e0          DCW      0x07f0,0x03e0
000324  00000000          DCW      0x0000,0x0000
000328  00000000          DCW      0x0000,0x0000
00032c  00000000          DCW      0x0000,0x0000
000330  00000100          DCW      0x0000,0x0100
000334  018001c0          DCW      0x0180,0x01c0
000338  01f00198          DCW      0x01f0,0x0198
00033c  01880180          DCW      0x0188,0x0180
000340  01800180          DCW      0x0180,0x0180
000344  01800180          DCW      0x0180,0x0180
000348  01800180          DCW      0x0180,0x0180
00034c  01800180          DCW      0x0180,0x0180
000350  01800180          DCW      0x0180,0x0180
000354  00000000          DCW      0x0000,0x0000
000358  00000000          DCW      0x0000,0x0000
00035c  00000000          DCW      0x0000,0x0000
000360  000003e0          DCW      0x0000,0x03e0
000364  0ff80c18          DCW      0x0ff8,0x0c18
000368  180c180c          DCW      0x180c,0x180c
00036c  18001800          DCW      0x1800,0x1800
000370  0c000600          DCW      0x0c00,0x0600
000374  03000180          DCW      0x0300,0x0180
000378  00c00060          DCW      0x00c0,0x0060
00037c  00300018          DCW      0x0030,0x0018
000380  1ffc1ffc          DCW      0x1ffc,0x1ffc
000384  00000000          DCW      0x0000,0x0000
000388  00000000          DCW      0x0000,0x0000
00038c  00000000          DCW      0x0000,0x0000
000390  000001e0          DCW      0x0000,0x01e0
000394  07f80e18          DCW      0x07f8,0x0e18
000398  0c0c0c0c          DCW      0x0c0c,0x0c0c
00039c  0c000600          DCW      0x0c00,0x0600
0003a0  03c007c0          DCW      0x03c0,0x07c0
0003a4  0c001800          DCW      0x0c00,0x1800
0003a8  1800180c          DCW      0x1800,0x180c
0003ac  180c0c18          DCW      0x180c,0x0c18
0003b0  07f803e0          DCW      0x07f8,0x03e0
0003b4  00000000          DCW      0x0000,0x0000
0003b8  00000000          DCW      0x0000,0x0000
0003bc  00000000          DCW      0x0000,0x0000
0003c0  00000c00          DCW      0x0000,0x0c00
0003c4  0e000f00          DCW      0x0e00,0x0f00
0003c8  0f000d80          DCW      0x0f00,0x0d80
0003cc  0cc00c60          DCW      0x0cc0,0x0c60
0003d0  0c600c30          DCW      0x0c60,0x0c30
0003d4  0c180c0c          DCW      0x0c18,0x0c0c
0003d8  3ffc3ffc          DCW      0x3ffc,0x3ffc
0003dc  0c000c00          DCW      0x0c00,0x0c00
0003e0  0c000c00          DCW      0x0c00,0x0c00
0003e4  00000000          DCW      0x0000,0x0000
0003e8  00000000          DCW      0x0000,0x0000
0003ec  00000000          DCW      0x0000,0x0000
0003f0  00000ff8          DCW      0x0000,0x0ff8
0003f4  0ff80018          DCW      0x0ff8,0x0018
0003f8  0018000c          DCW      0x0018,0x000c
0003fc  03ec07fc          DCW      0x03ec,0x07fc
000400  0e1c1c00          DCW      0x0e1c,0x1c00
000404  18001800          DCW      0x1800,0x1800
000408  1800180c          DCW      0x1800,0x180c
00040c  0c1c0e18          DCW      0x0c1c,0x0e18
000410  07f803e0          DCW      0x07f8,0x03e0
000414  00000000          DCW      0x0000,0x0000
000418  00000000          DCW      0x0000,0x0000
00041c  00000000          DCW      0x0000,0x0000
000420  000007c0          DCW      0x0000,0x07c0
000424  0ff01c38          DCW      0x0ff0,0x1c38
000428  18180018          DCW      0x1818,0x0018
00042c  000c03cc          DCW      0x000c,0x03cc
000430  0fec0e3c          DCW      0x0fec,0x0e3c
000434  1c1c180c          DCW      0x1c1c,0x180c
000438  180c180c          DCW      0x180c,0x180c
00043c  1c180e38          DCW      0x1c18,0x0e38
000440  07f003e0          DCW      0x07f0,0x03e0
000444  00000000          DCW      0x0000,0x0000
000448  00000000          DCW      0x0000,0x0000
00044c  00000000          DCW      0x0000,0x0000
000450  00001ffc          DCW      0x0000,0x1ffc
000454  1ffc0c00          DCW      0x1ffc,0x0c00
000458  06000600          DCW      0x0600,0x0600
00045c  03000380          DCW      0x0300,0x0380
000460  018001c0          DCW      0x0180,0x01c0
000464  00c000e0          DCW      0x00c0,0x00e0
000468  00600060          DCW      0x0060,0x0060
00046c  00700030          DCW      0x0070,0x0030
000470  00300030          DCW      0x0030,0x0030
000474  00000000          DCW      0x0000,0x0000
000478  00000000          DCW      0x0000,0x0000
00047c  00000000          DCW      0x0000,0x0000
000480  000003e0          DCW      0x0000,0x03e0
000484  07f00e38          DCW      0x07f0,0x0e38
000488  0c180c18          DCW      0x0c18,0x0c18
00048c  0c180638          DCW      0x0c18,0x0638
000490  07f007f0          DCW      0x07f0,0x07f0
000494  0c18180c          DCW      0x0c18,0x180c
000498  180c180c          DCW      0x180c,0x180c
00049c  180c0c38          DCW      0x180c,0x0c38
0004a0  0ff803e0          DCW      0x0ff8,0x03e0
0004a4  00000000          DCW      0x0000,0x0000
0004a8  00000000          DCW      0x0000,0x0000
0004ac  00000000          DCW      0x0000,0x0000
0004b0  000003e0          DCW      0x0000,0x03e0
0004b4  07f00e38          DCW      0x07f0,0x0e38
0004b8  0c1c180c          DCW      0x0c1c,0x180c
0004bc  180c180c          DCW      0x180c,0x180c
0004c0  1c1c1e38          DCW      0x1c1c,0x1e38
0004c4  1bf819e0          DCW      0x1bf8,0x19e0
0004c8  18000c00          DCW      0x1800,0x0c00
0004cc  0c000e1c          DCW      0x0c00,0x0e1c
0004d0  07f801f0          DCW      0x07f8,0x01f0
0004d4  00000000          DCW      0x0000,0x0000
0004d8  00000000          DCW      0x0000,0x0000
0004dc  00000000          DCW      0x0000,0x0000
0004e0  00000000          DCW      0x0000,0x0000
0004e4  00000000          DCW      0x0000,0x0000
0004e8  00000000          DCW      0x0000,0x0000
0004ec  01800180          DCW      0x0180,0x0180
0004f0  00000000          DCW      0x0000,0x0000
0004f4  00000000          DCW      0x0000,0x0000
0004f8  00000000          DCW      0x0000,0x0000
0004fc  00000000          DCW      0x0000,0x0000
000500  01800180          DCW      0x0180,0x0180
000504  00000000          DCW      0x0000,0x0000
000508  00000000          DCW      0x0000,0x0000
00050c  00000000          DCW      0x0000,0x0000
000510  00000000          DCW      0x0000,0x0000
000514  00000000          DCW      0x0000,0x0000
000518  00000000          DCW      0x0000,0x0000
00051c  01800180          DCW      0x0180,0x0180
000520  00000000          DCW      0x0000,0x0000
000524  00000000          DCW      0x0000,0x0000
000528  00000000          DCW      0x0000,0x0000
00052c  00000000          DCW      0x0000,0x0000
000530  01800180          DCW      0x0180,0x0180
000534  01000100          DCW      0x0100,0x0100
000538  00800000          DCW      0x0080,0x0000
00053c  00000000          DCW      0x0000,0x0000
000540  00000000          DCW      0x0000,0x0000
000544  00000000          DCW      0x0000,0x0000
000548  00000000          DCW      0x0000,0x0000
00054c  00000000          DCW      0x0000,0x0000
000550  10001c00          DCW      0x1000,0x1c00
000554  0f8003e0          DCW      0x0f80,0x03e0
000558  00f80018          DCW      0x00f8,0x0018
00055c  00f803e0          DCW      0x00f8,0x03e0
000560  0f801c00          DCW      0x0f80,0x1c00
000564  10000000          DCW      0x1000,0x0000
000568  00000000          DCW      0x0000,0x0000
00056c  00000000          DCW      0x0000,0x0000
000570  00000000          DCW      0x0000,0x0000
000574  00000000          DCW      0x0000,0x0000
000578  00000000          DCW      0x0000,0x0000
00057c  00000000          DCW      0x0000,0x0000
000580  1ff80000          DCW      0x1ff8,0x0000
000584  00000000          DCW      0x0000,0x0000
000588  1ff80000          DCW      0x1ff8,0x0000
00058c  00000000          DCW      0x0000,0x0000
000590  00000000          DCW      0x0000,0x0000
000594  00000000          DCW      0x0000,0x0000
000598  00000000          DCW      0x0000,0x0000
00059c  00000000          DCW      0x0000,0x0000
0005a0  00000000          DCW      0x0000,0x0000
0005a4  00000000          DCW      0x0000,0x0000
0005a8  00000000          DCW      0x0000,0x0000
0005ac  00000000          DCW      0x0000,0x0000
0005b0  00080038          DCW      0x0008,0x0038
0005b4  01f007c0          DCW      0x01f0,0x07c0
0005b8  1f001800          DCW      0x1f00,0x1800
0005bc  1f0007c0          DCW      0x1f00,0x07c0
0005c0  01f00038          DCW      0x01f0,0x0038
0005c4  00080000          DCW      0x0008,0x0000
0005c8  00000000          DCW      0x0000,0x0000
0005cc  00000000          DCW      0x0000,0x0000
0005d0  000003e0          DCW      0x0000,0x03e0
0005d4  0ff80c18          DCW      0x0ff8,0x0c18
0005d8  180c180c          DCW      0x180c,0x180c
0005dc  18000c00          DCW      0x1800,0x0c00
0005e0  06000300          DCW      0x0600,0x0300
0005e4  018000c0          DCW      0x0180,0x00c0
0005e8  00c000c0          DCW      0x00c0,0x00c0
0005ec  00000000          DCW      0x0000,0x0000
0005f0  00c000c0          DCW      0x00c0,0x00c0
0005f4  00000000          DCW      0x0000,0x0000
0005f8  00000000          DCW      0x0000,0x0000
0005fc  00000000          DCW      0x0000,0x0000
000600  00000000          DCW      0x0000,0x0000
000604  07e01818          DCW      0x07e0,0x1818
000608  200429c2          DCW      0x2004,0x29c2
00060c  4a224411          DCW      0x4a22,0x4411
000610  44094409          DCW      0x4409,0x4409
000614  44092209          DCW      0x4409,0x2209
000618  13110ce2          DCW      0x1311,0x0ce2
00061c  40022004          DCW      0x4002,0x2004
000620  181807e0          DCW      0x1818,0x07e0
000624  00000000          DCW      0x0000,0x0000
000628  00000000          DCW      0x0000,0x0000
00062c  00000000          DCW      0x0000,0x0000
000630  00000380          DCW      0x0000,0x0380
000634  038006c0          DCW      0x0380,0x06c0
000638  06c006c0          DCW      0x06c0,0x06c0
00063c  0c600c60          DCW      0x0c60,0x0c60
000640  18301830          DCW      0x1830,0x1830
000644  18303ff8          DCW      0x1830,0x3ff8
000648  3ff8701c          DCW      0x3ff8,0x701c
00064c  600c600c          DCW      0x600c,0x600c
000650  c006c006          DCW      0xc006,0xc006
000654  00000000          DCW      0x0000,0x0000
000658  00000000          DCW      0x0000,0x0000
00065c  00000000          DCW      0x0000,0x0000
000660  000003fc          DCW      0x0000,0x03fc
000664  0ffc0c0c          DCW      0x0ffc,0x0c0c
000668  180c180c          DCW      0x180c,0x180c
00066c  180c0c0c          DCW      0x180c,0x0c0c
000670  07fc0ffc          DCW      0x07fc,0x0ffc
000674  180c300c          DCW      0x180c,0x300c
000678  300c300c          DCW      0x300c,0x300c
00067c  300c180c          DCW      0x300c,0x180c
000680  1ffc07fc          DCW      0x1ffc,0x07fc
000684  00000000          DCW      0x0000,0x0000
000688  00000000          DCW      0x0000,0x0000
00068c  00000000          DCW      0x0000,0x0000
000690  000007c0          DCW      0x0000,0x07c0
000694  1ff03838          DCW      0x1ff0,0x3838
000698  301c700c          DCW      0x301c,0x700c
00069c  60060006          DCW      0x6006,0x0006
0006a0  00060006          DCW      0x0006,0x0006
0006a4  00060006          DCW      0x0006,0x0006
0006a8  00066006          DCW      0x0006,0x6006
0006ac  700c301c          DCW      0x700c,0x301c
0006b0  1ff007e0          DCW      0x1ff0,0x07e0
0006b4  00000000          DCW      0x0000,0x0000
0006b8  00000000          DCW      0x0000,0x0000
0006bc  00000000          DCW      0x0000,0x0000
0006c0  000003fe          DCW      0x0000,0x03fe
0006c4  0ffe0e06          DCW      0x0ffe,0x0e06
0006c8  18061806          DCW      0x1806,0x1806
0006cc  30063006          DCW      0x3006,0x3006
0006d0  30063006          DCW      0x3006,0x3006
0006d4  30063006          DCW      0x3006,0x3006
0006d8  30061806          DCW      0x3006,0x1806
0006dc  18060e06          DCW      0x1806,0x0e06
0006e0  0ffe03fe          DCW      0x0ffe,0x03fe
0006e4  00000000          DCW      0x0000,0x0000
0006e8  00000000          DCW      0x0000,0x0000
0006ec  00000000          DCW      0x0000,0x0000
0006f0  00003ffc          DCW      0x0000,0x3ffc
0006f4  3ffc000c          DCW      0x3ffc,0x000c
0006f8  000c000c          DCW      0x000c,0x000c
0006fc  000c000c          DCW      0x000c,0x000c
000700  1ffc1ffc          DCW      0x1ffc,0x1ffc
000704  000c000c          DCW      0x000c,0x000c
000708  000c000c          DCW      0x000c,0x000c
00070c  000c000c          DCW      0x000c,0x000c
000710  3ffc3ffc          DCW      0x3ffc,0x3ffc
000714  00000000          DCW      0x0000,0x0000
000718  00000000          DCW      0x0000,0x0000
00071c  00000000          DCW      0x0000,0x0000
000720  00003ff8          DCW      0x0000,0x3ff8
000724  3ff80018          DCW      0x3ff8,0x0018
000728  00180018          DCW      0x0018,0x0018
00072c  00180018          DCW      0x0018,0x0018
000730  1ff81ff8          DCW      0x1ff8,0x1ff8
000734  00180018          DCW      0x0018,0x0018
000738  00180018          DCW      0x0018,0x0018
00073c  00180018          DCW      0x0018,0x0018
000740  00180018          DCW      0x0018,0x0018
000744  00000000          DCW      0x0000,0x0000
000748  00000000          DCW      0x0000,0x0000
00074c  00000000          DCW      0x0000,0x0000
000750  00000fe0          DCW      0x0000,0x0fe0
000754  3ff8783c          DCW      0x3ff8,0x783c
000758  600ee006          DCW      0x600e,0xe006
00075c  c0070003          DCW      0xc007,0x0003
000760  0003fe03          DCW      0x0003,0xfe03
000764  fe03c003          DCW      0xfe03,0xc003
000768  c007c006          DCW      0xc007,0xc006
00076c  c00ef03c          DCW      0xc00e,0xf03c
000770  3ff80fe0          DCW      0x3ff8,0x0fe0
000774  00000000          DCW      0x0000,0x0000
000778  00000000          DCW      0x0000,0x0000
00077c  00000000          DCW      0x0000,0x0000
000780  0000300c          DCW      0x0000,0x300c
000784  300c300c          DCW      0x300c,0x300c
000788  300c300c          DCW      0x300c,0x300c
00078c  300c300c          DCW      0x300c,0x300c
000790  3ffc3ffc          DCW      0x3ffc,0x3ffc
000794  300c300c          DCW      0x300c,0x300c
000798  300c300c          DCW      0x300c,0x300c
00079c  300c300c          DCW      0x300c,0x300c
0007a0  300c300c          DCW      0x300c,0x300c
0007a4  00000000          DCW      0x0000,0x0000
0007a8  00000000          DCW      0x0000,0x0000
0007ac  00000000          DCW      0x0000,0x0000
0007b0  00000180          DCW      0x0000,0x0180
0007b4  01800180          DCW      0x0180,0x0180
0007b8  01800180          DCW      0x0180,0x0180
0007bc  01800180          DCW      0x0180,0x0180
0007c0  01800180          DCW      0x0180,0x0180
0007c4  01800180          DCW      0x0180,0x0180
0007c8  01800180          DCW      0x0180,0x0180
0007cc  01800180          DCW      0x0180,0x0180
0007d0  01800180          DCW      0x0180,0x0180
0007d4  00000000          DCW      0x0000,0x0000
0007d8  00000000          DCW      0x0000,0x0000
0007dc  00000000          DCW      0x0000,0x0000
0007e0  00000600          DCW      0x0000,0x0600
0007e4  06000600          DCW      0x0600,0x0600
0007e8  06000600          DCW      0x0600,0x0600
0007ec  06000600          DCW      0x0600,0x0600
0007f0  06000600          DCW      0x0600,0x0600
0007f4  06000600          DCW      0x0600,0x0600
0007f8  06000618          DCW      0x0600,0x0618
0007fc  06180738          DCW      0x0618,0x0738
000800  03f001e0          DCW      0x03f0,0x01e0
000804  00000000          DCW      0x0000,0x0000
000808  00000000          DCW      0x0000,0x0000
00080c  00000000          DCW      0x0000,0x0000
000810  00003006          DCW      0x0000,0x3006
000814  18060c06          DCW      0x1806,0x0c06
000818  06060306          DCW      0x0606,0x0306
00081c  018600c6          DCW      0x0186,0x00c6
000820  00660076          DCW      0x0066,0x0076
000824  00de018e          DCW      0x00de,0x018e
000828  03060606          DCW      0x0306,0x0606
00082c  0c061806          DCW      0x0c06,0x1806
000830  30066006          DCW      0x3006,0x6006
000834  00000000          DCW      0x0000,0x0000
000838  00000000          DCW      0x0000,0x0000
00083c  00000000          DCW      0x0000,0x0000
000840  00000018          DCW      0x0000,0x0018
000844  00180018          DCW      0x0018,0x0018
000848  00180018          DCW      0x0018,0x0018
00084c  00180018          DCW      0x0018,0x0018
000850  00180018          DCW      0x0018,0x0018
000854  00180018          DCW      0x0018,0x0018
000858  00180018          DCW      0x0018,0x0018
00085c  00180018          DCW      0x0018,0x0018
000860  1ff81ff8          DCW      0x1ff8,0x1ff8
000864  00000000          DCW      0x0000,0x0000
000868  00000000          DCW      0x0000,0x0000
00086c  00000000          DCW      0x0000,0x0000
000870  0000e00e          DCW      0x0000,0xe00e
000874  f01ef01e          DCW      0xf01e,0xf01e
000878  f01ed836          DCW      0xf01e,0xd836
00087c  d836d836          DCW      0xd836,0xd836
000880  d836cc66          DCW      0xd836,0xcc66
000884  cc66cc66          DCW      0xcc66,0xcc66
000888  c6c6c6c6          DCW      0xc6c6,0xc6c6
00088c  c6c6c6c6          DCW      0xc6c6,0xc6c6
000890  c386c386          DCW      0xc386,0xc386
000894  00000000          DCW      0x0000,0x0000
000898  00000000          DCW      0x0000,0x0000
00089c  00000000          DCW      0x0000,0x0000
0008a0  0000300c          DCW      0x0000,0x300c
0008a4  301c303c          DCW      0x301c,0x303c
0008a8  303c306c          DCW      0x303c,0x306c
0008ac  306c30cc          DCW      0x306c,0x30cc
0008b0  30cc318c          DCW      0x30cc,0x318c
0008b4  330c330c          DCW      0x330c,0x330c
0008b8  360c360c          DCW      0x360c,0x360c
0008bc  3c0c3c0c          DCW      0x3c0c,0x3c0c
0008c0  380c300c          DCW      0x380c,0x300c
0008c4  00000000          DCW      0x0000,0x0000
0008c8  00000000          DCW      0x0000,0x0000
0008cc  00000000          DCW      0x0000,0x0000
0008d0  000007e0          DCW      0x0000,0x07e0
0008d4  1ff8381c          DCW      0x1ff8,0x381c
0008d8  700e6006          DCW      0x700e,0x6006
0008dc  c003c003          DCW      0xc003,0xc003
0008e0  c003c003          DCW      0xc003,0xc003
0008e4  c003c003          DCW      0xc003,0xc003
0008e8  c0036006          DCW      0xc003,0x6006
0008ec  700e381c          DCW      0x700e,0x381c
0008f0  1ff807e0          DCW      0x1ff8,0x07e0
0008f4  00000000          DCW      0x0000,0x0000
0008f8  00000000          DCW      0x0000,0x0000
0008fc  00000000          DCW      0x0000,0x0000
000900  00000ffc          DCW      0x0000,0x0ffc
000904  1ffc380c          DCW      0x1ffc,0x380c
000908  300c300c          DCW      0x300c,0x300c
00090c  300c300c          DCW      0x300c,0x300c
000910  180c1ffc          DCW      0x180c,0x1ffc
000914  07fc000c          DCW      0x07fc,0x000c
000918  000c000c          DCW      0x000c,0x000c
00091c  000c000c          DCW      0x000c,0x000c
000920  000c000c          DCW      0x000c,0x000c
000924  00000000          DCW      0x0000,0x0000
000928  00000000          DCW      0x0000,0x0000
00092c  00000000          DCW      0x0000,0x0000
000930  000007e0          DCW      0x0000,0x07e0
000934  1ff8381c          DCW      0x1ff8,0x381c
000938  700e6006          DCW      0x700e,0x6006
00093c  e003c003          DCW      0xe003,0xc003
000940  c003c003          DCW      0xc003,0xc003
000944  c003c003          DCW      0xc003,0xc003
000948  e0076306          DCW      0xe007,0x6306
00094c  3f0e3c1c          DCW      0x3f0e,0x3c1c
000950  3ff8f7e0          DCW      0x3ff8,0xf7e0
000954  c0000000          DCW      0xc000,0x0000
000958  00000000          DCW      0x0000,0x0000
00095c  00000000          DCW      0x0000,0x0000
000960  00000ffe          DCW      0x0000,0x0ffe
000964  1ffe3806          DCW      0x1ffe,0x3806
000968  30063006          DCW      0x3006,0x3006
00096c  30063806          DCW      0x3006,0x3806
000970  1ffe07fe          DCW      0x1ffe,0x07fe
000974  03060606          DCW      0x0306,0x0606
000978  0c061806          DCW      0x0c06,0x1806
00097c  18063006          DCW      0x1806,0x3006
000980  30066006          DCW      0x3006,0x6006
000984  00000000          DCW      0x0000,0x0000
000988  00000000          DCW      0x0000,0x0000
00098c  00000000          DCW      0x0000,0x0000
000990  000003e0          DCW      0x0000,0x03e0
000994  0ff80c1c          DCW      0x0ff8,0x0c1c
000998  180c180c          DCW      0x180c,0x180c
00099c  000c001c          DCW      0x000c,0x001c
0009a0  03f80fe0          DCW      0x03f8,0x0fe0
0009a4  1e003800          DCW      0x1e00,0x3800
0009a8  30063006          DCW      0x3006,0x3006
0009ac  300e1c1c          DCW      0x300e,0x1c1c
0009b0  0ff807e0          DCW      0x0ff8,0x07e0
0009b4  00000000          DCW      0x0000,0x0000
0009b8  00000000          DCW      0x0000,0x0000
0009bc  00000000          DCW      0x0000,0x0000
0009c0  00007ffe          DCW      0x0000,0x7ffe
0009c4  7ffe0180          DCW      0x7ffe,0x0180
0009c8  01800180          DCW      0x0180,0x0180
0009cc  01800180          DCW      0x0180,0x0180
0009d0  01800180          DCW      0x0180,0x0180
0009d4  01800180          DCW      0x0180,0x0180
0009d8  01800180          DCW      0x0180,0x0180
0009dc  01800180          DCW      0x0180,0x0180
0009e0  01800180          DCW      0x0180,0x0180
0009e4  00000000          DCW      0x0000,0x0000
0009e8  00000000          DCW      0x0000,0x0000
0009ec  00000000          DCW      0x0000,0x0000
0009f0  0000300c          DCW      0x0000,0x300c
0009f4  300c300c          DCW      0x300c,0x300c
0009f8  300c300c          DCW      0x300c,0x300c
0009fc  300c300c          DCW      0x300c,0x300c
000a00  300c300c          DCW      0x300c,0x300c
000a04  300c300c          DCW      0x300c,0x300c
000a08  300c300c          DCW      0x300c,0x300c
000a0c  300c1818          DCW      0x300c,0x1818
000a10  1ff807e0          DCW      0x1ff8,0x07e0
000a14  00000000          DCW      0x0000,0x0000
000a18  00000000          DCW      0x0000,0x0000
000a1c  00000000          DCW      0x0000,0x0000
000a20  00006003          DCW      0x0000,0x6003
000a24  30063006          DCW      0x3006,0x3006
000a28  3006180c          DCW      0x3006,0x180c
000a2c  180c180c          DCW      0x180c,0x180c
000a30  0c180c18          DCW      0x0c18,0x0c18
000a34  0e380630          DCW      0x0e38,0x0630
000a38  06300770          DCW      0x0630,0x0770
000a3c  03600360          DCW      0x0360,0x0360
000a40  01c001c0          DCW      0x01c0,0x01c0
000a44  00000000          DCW      0x0000,0x0000
000a48  00000000          DCW      0x0000,0x0000
000a4c  00000000          DCW      0x0000,0x0000
000a50  00006003          DCW      0x0000,0x6003
000a54  61c361c3          DCW      0x61c3,0x61c3
000a58  61c33366          DCW      0x61c3,0x3366
000a5c  33663366          DCW      0x3366,0x3366
000a60  33663366          DCW      0x3366,0x3366
000a64  33661b6c          DCW      0x3366,0x1b6c
000a68  1b6c1b6c          DCW      0x1b6c,0x1b6c
000a6c  1a2c1e3c          DCW      0x1a2c,0x1e3c
000a70  0e380e38          DCW      0x0e38,0x0e38
000a74  00000000          DCW      0x0000,0x0000
000a78  00000000          DCW      0x0000,0x0000
000a7c  00000000          DCW      0x0000,0x0000
000a80  0000e00f          DCW      0x0000,0xe00f
000a84  700c3018          DCW      0x700c,0x3018
000a88  18300c70          DCW      0x1830,0x0c70
000a8c  0e6007c0          DCW      0x0e60,0x07c0
000a90  03800380          DCW      0x0380,0x0380
000a94  03c006e0          DCW      0x03c0,0x06e0
000a98  0c701c30          DCW      0x0c70,0x1c30
000a9c  1818300c          DCW      0x1818,0x300c
000aa0  600ee007          DCW      0x600e,0xe007
000aa4  00000000          DCW      0x0000,0x0000
000aa8  00000000          DCW      0x0000,0x0000
000aac  00000000          DCW      0x0000,0x0000
000ab0  0000c003          DCW      0x0000,0xc003
000ab4  6006300c          DCW      0x6006,0x300c
000ab8  381c1838          DCW      0x381c,0x1838
000abc  0c300660          DCW      0x0c30,0x0660
000ac0  07e003c0          DCW      0x07e0,0x03c0
000ac4  01800180          DCW      0x0180,0x0180
000ac8  01800180          DCW      0x0180,0x0180
000acc  01800180          DCW      0x0180,0x0180
000ad0  01800180          DCW      0x0180,0x0180
000ad4  00000000          DCW      0x0000,0x0000
000ad8  00000000          DCW      0x0000,0x0000
000adc  00000000          DCW      0x0000,0x0000
000ae0  00007ffc          DCW      0x0000,0x7ffc
000ae4  7ffc6000          DCW      0x7ffc,0x6000
000ae8  30001800          DCW      0x3000,0x1800
000aec  0c000600          DCW      0x0c00,0x0600
000af0  03000180          DCW      0x0300,0x0180
000af4  00c00060          DCW      0x00c0,0x0060
000af8  00300018          DCW      0x0030,0x0018
000afc  000c0006          DCW      0x000c,0x0006
000b00  7ffe7ffe          DCW      0x7ffe,0x7ffe
000b04  00000000          DCW      0x0000,0x0000
000b08  00000000          DCW      0x0000,0x0000
000b0c  00000000          DCW      0x0000,0x0000
000b10  000003e0          DCW      0x0000,0x03e0
000b14  03e00060          DCW      0x03e0,0x0060
000b18  00600060          DCW      0x0060,0x0060
000b1c  00600060          DCW      0x0060,0x0060
000b20  00600060          DCW      0x0060,0x0060
000b24  00600060          DCW      0x0060,0x0060
000b28  00600060          DCW      0x0060,0x0060
000b2c  00600060          DCW      0x0060,0x0060
000b30  00600060          DCW      0x0060,0x0060
000b34  00600060          DCW      0x0060,0x0060
000b38  006003e0          DCW      0x0060,0x03e0
000b3c  03e00000          DCW      0x03e0,0x0000
000b40  00000030          DCW      0x0000,0x0030
000b44  00300060          DCW      0x0030,0x0060
000b48  00600060          DCW      0x0060,0x0060
000b4c  00c000c0          DCW      0x00c0,0x00c0
000b50  00c001c0          DCW      0x00c0,0x01c0
000b54  01800180          DCW      0x0180,0x0180
000b58  01800300          DCW      0x0180,0x0300
000b5c  03000300          DCW      0x0300,0x0300
000b60  06000600          DCW      0x0600,0x0600
000b64  00000000          DCW      0x0000,0x0000
000b68  00000000          DCW      0x0000,0x0000
000b6c  00000000          DCW      0x0000,0x0000
000b70  000003e0          DCW      0x0000,0x03e0
000b74  03e00300          DCW      0x03e0,0x0300
000b78  03000300          DCW      0x0300,0x0300
000b7c  03000300          DCW      0x0300,0x0300
000b80  03000300          DCW      0x0300,0x0300
000b84  03000300          DCW      0x0300,0x0300
000b88  03000300          DCW      0x0300,0x0300
000b8c  03000300          DCW      0x0300,0x0300
000b90  03000300          DCW      0x0300,0x0300
000b94  03000300          DCW      0x0300,0x0300
000b98  030003e0          DCW      0x0300,0x03e0
000b9c  03e00000          DCW      0x03e0,0x0000
000ba0  00000000          DCW      0x0000,0x0000
000ba4  01c001c0          DCW      0x01c0,0x01c0
000ba8  03600360          DCW      0x0360,0x0360
000bac  03600630          DCW      0x0360,0x0630
000bb0  06300c18          DCW      0x0630,0x0c18
000bb4  0c180000          DCW      0x0c18,0x0000
000bb8  00000000          DCW      0x0000,0x0000
000bbc  00000000          DCW      0x0000,0x0000
000bc0  00000000          DCW      0x0000,0x0000
000bc4  00000000          DCW      0x0000,0x0000
000bc8  00000000          DCW      0x0000,0x0000
000bcc  00000000          DCW      0x0000,0x0000
000bd0  00000000          DCW      0x0000,0x0000
000bd4  00000000          DCW      0x0000,0x0000
000bd8  00000000          DCW      0x0000,0x0000
000bdc  00000000          DCW      0x0000,0x0000
000be0  00000000          DCW      0x0000,0x0000
000be4  00000000          DCW      0x0000,0x0000
000be8  00000000          DCW      0x0000,0x0000
000bec  00000000          DCW      0x0000,0x0000
000bf0  0000ffff          DCW      0x0000,0xffff
000bf4  ffff0000          DCW      0xffff,0x0000
000bf8  00000000          DCW      0x0000,0x0000
000bfc  00000000          DCW      0x0000,0x0000
000c00  0000000c          DCW      0x0000,0x000c
000c04  000c000c          DCW      0x000c,0x000c
000c08  000c000c          DCW      0x000c,0x000c
000c0c  000c0000          DCW      0x000c,0x0000
000c10  00000000          DCW      0x0000,0x0000
000c14  00000000          DCW      0x0000,0x0000
000c18  00000000          DCW      0x0000,0x0000
000c1c  00000000          DCW      0x0000,0x0000
000c20  00000000          DCW      0x0000,0x0000
000c24  00000000          DCW      0x0000,0x0000
000c28  00000000          DCW      0x0000,0x0000
000c2c  00000000          DCW      0x0000,0x0000
000c30  00000000          DCW      0x0000,0x0000
000c34  00000000          DCW      0x0000,0x0000
000c38  00000000          DCW      0x0000,0x0000
000c3c  03f007f8          DCW      0x03f0,0x07f8
000c40  0c1c0c0c          DCW      0x0c1c,0x0c0c
000c44  0f000ff0          DCW      0x0f00,0x0ff0
000c48  0cf80c0c          DCW      0x0cf8,0x0c0c
000c4c  0c0c0f1c          DCW      0x0c0c,0x0f1c
000c50  0ff818f0          DCW      0x0ff8,0x18f0
000c54  00000000          DCW      0x0000,0x0000
000c58  00000000          DCW      0x0000,0x0000
000c5c  00000000          DCW      0x0000,0x0000
000c60  00000018          DCW      0x0000,0x0018
000c64  00180018          DCW      0x0018,0x0018
000c68  00180018          DCW      0x0018,0x0018
000c6c  03d80ff8          DCW      0x03d8,0x0ff8
000c70  0c381818          DCW      0x0c38,0x1818
000c74  18181818          DCW      0x1818,0x1818
000c78  18181818          DCW      0x1818,0x1818
000c7c  18180c38          DCW      0x1818,0x0c38
000c80  0ff803d8          DCW      0x0ff8,0x03d8
000c84  00000000          DCW      0x0000,0x0000
000c88  00000000          DCW      0x0000,0x0000
000c8c  00000000          DCW      0x0000,0x0000
000c90  00000000          DCW      0x0000,0x0000
000c94  00000000          DCW      0x0000,0x0000
000c98  00000000          DCW      0x0000,0x0000
000c9c  03c007f0          DCW      0x03c0,0x07f0
000ca0  0e300c18          DCW      0x0e30,0x0c18
000ca4  00180018          DCW      0x0018,0x0018
000ca8  00180018          DCW      0x0018,0x0018
000cac  0c180e30          DCW      0x0c18,0x0e30
000cb0  07f003c0          DCW      0x07f0,0x03c0
000cb4  00000000          DCW      0x0000,0x0000
000cb8  00000000          DCW      0x0000,0x0000
000cbc  00000000          DCW      0x0000,0x0000
000cc0  00001800          DCW      0x0000,0x1800
000cc4  18001800          DCW      0x1800,0x1800
000cc8  18001800          DCW      0x1800,0x1800
000ccc  1bc01ff0          DCW      0x1bc0,0x1ff0
000cd0  1c301818          DCW      0x1c30,0x1818
000cd4  18181818          DCW      0x1818,0x1818
000cd8  18181818          DCW      0x1818,0x1818
000cdc  18181c30          DCW      0x1818,0x1c30
000ce0  1ff01bc0          DCW      0x1ff0,0x1bc0
000ce4  00000000          DCW      0x0000,0x0000
000ce8  00000000          DCW      0x0000,0x0000
000cec  00000000          DCW      0x0000,0x0000
000cf0  00000000          DCW      0x0000,0x0000
000cf4  00000000          DCW      0x0000,0x0000
000cf8  00000000          DCW      0x0000,0x0000
000cfc  03c00ff0          DCW      0x03c0,0x0ff0
000d00  0c301818          DCW      0x0c30,0x1818
000d04  1ff81ff8          DCW      0x1ff8,0x1ff8
000d08  00180018          DCW      0x0018,0x0018
000d0c  18381c30          DCW      0x1838,0x1c30
000d10  0ff007c0          DCW      0x0ff0,0x07c0
000d14  00000000          DCW      0x0000,0x0000
000d18  00000000          DCW      0x0000,0x0000
000d1c  00000000          DCW      0x0000,0x0000
000d20  00000f80          DCW      0x0000,0x0f80
000d24  0fc000c0          DCW      0x0fc0,0x00c0
000d28  00c000c0          DCW      0x00c0,0x00c0
000d2c  07f007f0          DCW      0x07f0,0x07f0
000d30  00c000c0          DCW      0x00c0,0x00c0
000d34  00c000c0          DCW      0x00c0,0x00c0
000d38  00c000c0          DCW      0x00c0,0x00c0
000d3c  00c000c0          DCW      0x00c0,0x00c0
000d40  00c000c0          DCW      0x00c0,0x00c0
000d44  00000000          DCW      0x0000,0x0000
000d48  00000000          DCW      0x0000,0x0000
000d4c  00000000          DCW      0x0000,0x0000
000d50  00000000          DCW      0x0000,0x0000
000d54  00000000          DCW      0x0000,0x0000
000d58  00000000          DCW      0x0000,0x0000
000d5c  0de00ff8          DCW      0x0de0,0x0ff8
000d60  0e180c0c          DCW      0x0e18,0x0c0c
000d64  0c0c0c0c          DCW      0x0c0c,0x0c0c
000d68  0c0c0c0c          DCW      0x0c0c,0x0c0c
000d6c  0c0c0e18          DCW      0x0c0c,0x0e18
000d70  0ff80de0          DCW      0x0ff8,0x0de0
000d74  0c000c0c          DCW      0x0c00,0x0c0c
000d78  061c07f8          DCW      0x061c,0x07f8
000d7c  01f00000          DCW      0x01f0,0x0000
000d80  00000018          DCW      0x0000,0x0018
000d84  00180018          DCW      0x0018,0x0018
000d88  00180018          DCW      0x0018,0x0018
000d8c  07d80ff8          DCW      0x07d8,0x0ff8
000d90  1c381818          DCW      0x1c38,0x1818
000d94  18181818          DCW      0x1818,0x1818
000d98  18181818          DCW      0x1818,0x1818
000d9c  18181818          DCW      0x1818,0x1818
000da0  18181818          DCW      0x1818,0x1818
000da4  00000000          DCW      0x0000,0x0000
000da8  00000000          DCW      0x0000,0x0000
000dac  00000000          DCW      0x0000,0x0000
000db0  000000c0          DCW      0x0000,0x00c0
000db4  00c00000          DCW      0x00c0,0x0000
000db8  00000000          DCW      0x0000,0x0000
000dbc  00c000c0          DCW      0x00c0,0x00c0
000dc0  00c000c0          DCW      0x00c0,0x00c0
000dc4  00c000c0          DCW      0x00c0,0x00c0
000dc8  00c000c0          DCW      0x00c0,0x00c0
000dcc  00c000c0          DCW      0x00c0,0x00c0
000dd0  00c000c0          DCW      0x00c0,0x00c0
000dd4  00000000          DCW      0x0000,0x0000
000dd8  00000000          DCW      0x0000,0x0000
000ddc  00000000          DCW      0x0000,0x0000
000de0  000000c0          DCW      0x0000,0x00c0
000de4  00c00000          DCW      0x00c0,0x0000
000de8  00000000          DCW      0x0000,0x0000
000dec  00c000c0          DCW      0x00c0,0x00c0
000df0  00c000c0          DCW      0x00c0,0x00c0
000df4  00c000c0          DCW      0x00c0,0x00c0
000df8  00c000c0          DCW      0x00c0,0x00c0
000dfc  00c000c0          DCW      0x00c0,0x00c0
000e00  00c000c0          DCW      0x00c0,0x00c0
000e04  00c000c0          DCW      0x00c0,0x00c0
000e08  00c000f8          DCW      0x00c0,0x00f8
000e0c  00780000          DCW      0x0078,0x0000
000e10  0000000c          DCW      0x0000,0x000c
000e14  000c000c          DCW      0x000c,0x000c
000e18  000c000c          DCW      0x000c,0x000c
000e1c  0c0c060c          DCW      0x0c0c,0x060c
000e20  030c018c          DCW      0x030c,0x018c
000e24  00cc006c          DCW      0x00cc,0x006c
000e28  00fc019c          DCW      0x00fc,0x019c
000e2c  038c030c          DCW      0x038c,0x030c
000e30  060c0c0c          DCW      0x060c,0x0c0c
000e34  00000000          DCW      0x0000,0x0000
000e38  00000000          DCW      0x0000,0x0000
000e3c  00000000          DCW      0x0000,0x0000
000e40  000000c0          DCW      0x0000,0x00c0
000e44  00c000c0          DCW      0x00c0,0x00c0
000e48  00c000c0          DCW      0x00c0,0x00c0
000e4c  00c000c0          DCW      0x00c0,0x00c0
000e50  00c000c0          DCW      0x00c0,0x00c0
000e54  00c000c0          DCW      0x00c0,0x00c0
000e58  00c000c0          DCW      0x00c0,0x00c0
000e5c  00c000c0          DCW      0x00c0,0x00c0
000e60  00c000c0          DCW      0x00c0,0x00c0
000e64  00000000          DCW      0x0000,0x0000
000e68  00000000          DCW      0x0000,0x0000
000e6c  00000000          DCW      0x0000,0x0000
000e70  00000000          DCW      0x0000,0x0000
000e74  00000000          DCW      0x0000,0x0000
000e78  00000000          DCW      0x0000,0x0000
000e7c  3c7c7eff          DCW      0x3c7c,0x7eff
000e80  e3c7c183          DCW      0xe3c7,0xc183
000e84  c183c183          DCW      0xc183,0xc183
000e88  c183c183          DCW      0xc183,0xc183
000e8c  c183c183          DCW      0xc183,0xc183
000e90  c183c183          DCW      0xc183,0xc183
000e94  00000000          DCW      0x0000,0x0000
000e98  00000000          DCW      0x0000,0x0000
000e9c  00000000          DCW      0x0000,0x0000
000ea0  00000000          DCW      0x0000,0x0000
000ea4  00000000          DCW      0x0000,0x0000
000ea8  00000000          DCW      0x0000,0x0000
000eac  07980ff8          DCW      0x0798,0x0ff8
000eb0  1c381818          DCW      0x1c38,0x1818
000eb4  18181818          DCW      0x1818,0x1818
000eb8  18181818          DCW      0x1818,0x1818
000ebc  18181818          DCW      0x1818,0x1818
000ec0  18181818          DCW      0x1818,0x1818
000ec4  00000000          DCW      0x0000,0x0000
000ec8  00000000          DCW      0x0000,0x0000
000ecc  00000000          DCW      0x0000,0x0000
000ed0  00000000          DCW      0x0000,0x0000
000ed4  00000000          DCW      0x0000,0x0000
000ed8  00000000          DCW      0x0000,0x0000
000edc  03c00ff0          DCW      0x03c0,0x0ff0
000ee0  0c301818          DCW      0x0c30,0x1818
000ee4  18181818          DCW      0x1818,0x1818
000ee8  18181818          DCW      0x1818,0x1818
000eec  18180c30          DCW      0x1818,0x0c30
000ef0  0ff003c0          DCW      0x0ff0,0x03c0
000ef4  00000000          DCW      0x0000,0x0000
000ef8  00000000          DCW      0x0000,0x0000
000efc  00000000          DCW      0x0000,0x0000
000f00  00000000          DCW      0x0000,0x0000
000f04  00000000          DCW      0x0000,0x0000
000f08  00000000          DCW      0x0000,0x0000
000f0c  03d80ff8          DCW      0x03d8,0x0ff8
000f10  0c381818          DCW      0x0c38,0x1818
000f14  18181818          DCW      0x1818,0x1818
000f18  18181818          DCW      0x1818,0x1818
000f1c  18180c38          DCW      0x1818,0x0c38
000f20  0ff803d8          DCW      0x0ff8,0x03d8
000f24  00180018          DCW      0x0018,0x0018
000f28  00180018          DCW      0x0018,0x0018
000f2c  00180000          DCW      0x0018,0x0000
000f30  00000000          DCW      0x0000,0x0000
000f34  00000000          DCW      0x0000,0x0000
000f38  00000000          DCW      0x0000,0x0000
000f3c  1bc01ff0          DCW      0x1bc0,0x1ff0
000f40  1c301818          DCW      0x1c30,0x1818
000f44  18181818          DCW      0x1818,0x1818
000f48  18181818          DCW      0x1818,0x1818
000f4c  18181c30          DCW      0x1818,0x1c30
000f50  1ff01bc0          DCW      0x1ff0,0x1bc0
000f54  18001800          DCW      0x1800,0x1800
000f58  18001800          DCW      0x1800,0x1800
000f5c  18000000          DCW      0x1800,0x0000
000f60  00000000          DCW      0x0000,0x0000
000f64  00000000          DCW      0x0000,0x0000
000f68  00000000          DCW      0x0000,0x0000
000f6c  07b003f0          DCW      0x07b0,0x03f0
000f70  00700030          DCW      0x0070,0x0030
000f74  00300030          DCW      0x0030,0x0030
000f78  00300030          DCW      0x0030,0x0030
000f7c  00300030          DCW      0x0030,0x0030
000f80  00300030          DCW      0x0030,0x0030
000f84  00000000          DCW      0x0000,0x0000
000f88  00000000          DCW      0x0000,0x0000
000f8c  00000000          DCW      0x0000,0x0000
000f90  00000000          DCW      0x0000,0x0000
000f94  00000000          DCW      0x0000,0x0000
000f98  00000000          DCW      0x0000,0x0000
000f9c  03e003f0          DCW      0x03e0,0x03f0
000fa0  0e380c18          DCW      0x0e38,0x0c18
000fa4  003803f0          DCW      0x0038,0x03f0
000fa8  07c00c00          DCW      0x07c0,0x0c00
000fac  0c180e38          DCW      0x0c18,0x0e38
000fb0  07f003e0          DCW      0x07f0,0x03e0
000fb4  00000000          DCW      0x0000,0x0000
000fb8  00000000          DCW      0x0000,0x0000
000fbc  00000000          DCW      0x0000,0x0000
000fc0  00000000          DCW      0x0000,0x0000
000fc4  008000c0          DCW      0x0080,0x00c0
000fc8  00c000c0          DCW      0x00c0,0x00c0
000fcc  07f007f0          DCW      0x07f0,0x07f0
000fd0  00c000c0          DCW      0x00c0,0x00c0
000fd4  00c000c0          DCW      0x00c0,0x00c0
000fd8  00c000c0          DCW      0x00c0,0x00c0
000fdc  00c000c0          DCW      0x00c0,0x00c0
000fe0  07c00780          DCW      0x07c0,0x0780
000fe4  00000000          DCW      0x0000,0x0000
000fe8  00000000          DCW      0x0000,0x0000
000fec  00000000          DCW      0x0000,0x0000
000ff0  00000000          DCW      0x0000,0x0000
000ff4  00000000          DCW      0x0000,0x0000
000ff8  00000000          DCW      0x0000,0x0000
000ffc  18181818          DCW      0x1818,0x1818
001000  18181818          DCW      0x1818,0x1818
001004  18181818          DCW      0x1818,0x1818
001008  18181818          DCW      0x1818,0x1818
00100c  18181c38          DCW      0x1818,0x1c38
001010  1ff019e0          DCW      0x1ff0,0x19e0
001014  00000000          DCW      0x0000,0x0000
001018  00000000          DCW      0x0000,0x0000
00101c  00000000          DCW      0x0000,0x0000
001020  00000000          DCW      0x0000,0x0000
001024  00000000          DCW      0x0000,0x0000
001028  00000000          DCW      0x0000,0x0000
00102c  180c0c18          DCW      0x180c,0x0c18
001030  0c180c18          DCW      0x0c18,0x0c18
001034  06300630          DCW      0x0630,0x0630
001038  06300360          DCW      0x0630,0x0360
00103c  03600360          DCW      0x0360,0x0360
001040  01c001c0          DCW      0x01c0,0x01c0
001044  00000000          DCW      0x0000,0x0000
001048  00000000          DCW      0x0000,0x0000
00104c  00000000          DCW      0x0000,0x0000
001050  00000000          DCW      0x0000,0x0000
001054  00000000          DCW      0x0000,0x0000
001058  00000000          DCW      0x0000,0x0000
00105c  41c141c1          DCW      0x41c1,0x41c1
001060  61c36363          DCW      0x61c3,0x6363
001064  63636363          DCW      0x6363,0x6363
001068  36363636          DCW      0x3636,0x3636
00106c  36361c1c          DCW      0x3636,0x1c1c
001070  1c1c1c1c          DCW      0x1c1c,0x1c1c
001074  00000000          DCW      0x0000,0x0000
001078  00000000          DCW      0x0000,0x0000
00107c  00000000          DCW      0x0000,0x0000
001080  00000000          DCW      0x0000,0x0000
001084  00000000          DCW      0x0000,0x0000
001088  00000000          DCW      0x0000,0x0000
00108c  381c1c38          DCW      0x381c,0x1c38
001090  0c300660          DCW      0x0c30,0x0660
001094  03600360          DCW      0x0360,0x0360
001098  03600360          DCW      0x0360,0x0360
00109c  06600c30          DCW      0x0660,0x0c30
0010a0  1c38381c          DCW      0x1c38,0x381c
0010a4  00000000          DCW      0x0000,0x0000
0010a8  00000000          DCW      0x0000,0x0000
0010ac  00000000          DCW      0x0000,0x0000
0010b0  00000000          DCW      0x0000,0x0000
0010b4  00000000          DCW      0x0000,0x0000
0010b8  00000000          DCW      0x0000,0x0000
0010bc  30181830          DCW      0x3018,0x1830
0010c0  18301870          DCW      0x1830,0x1870
0010c4  0c600c60          DCW      0x0c60,0x0c60
0010c8  0ce006c0          DCW      0x0ce0,0x06c0
0010cc  06c00380          DCW      0x06c0,0x0380
0010d0  03800380          DCW      0x0380,0x0380
0010d4  01800180          DCW      0x0180,0x0180
0010d8  01c000f0          DCW      0x01c0,0x00f0
0010dc  00700000          DCW      0x0070,0x0000
0010e0  00000000          DCW      0x0000,0x0000
0010e4  00000000          DCW      0x0000,0x0000
0010e8  00000000          DCW      0x0000,0x0000
0010ec  1ffc1ffc          DCW      0x1ffc,0x1ffc
0010f0  0c000600          DCW      0x0c00,0x0600
0010f4  03000180          DCW      0x0300,0x0180
0010f8  00c00060          DCW      0x00c0,0x0060
0010fc  00300018          DCW      0x0030,0x0018
001100  1ffc1ffc          DCW      0x1ffc,0x1ffc
001104  00000000          DCW      0x0000,0x0000
001108  00000000          DCW      0x0000,0x0000
00110c  00000000          DCW      0x0000,0x0000
001110  00000300          DCW      0x0000,0x0300
001114  018000c0          DCW      0x0180,0x00c0
001118  00c000c0          DCW      0x00c0,0x00c0
00111c  00c000c0          DCW      0x00c0,0x00c0
001120  00c00060          DCW      0x00c0,0x0060
001124  00600030          DCW      0x0060,0x0030
001128  00600040          DCW      0x0060,0x0040
00112c  00c000c0          DCW      0x00c0,0x00c0
001130  00c000c0          DCW      0x00c0,0x00c0
001134  00c000c0          DCW      0x00c0,0x00c0
001138  01800300          DCW      0x0180,0x0300
00113c  00000000          DCW      0x0000,0x0000
001140  00000180          DCW      0x0000,0x0180
001144  01800180          DCW      0x0180,0x0180
001148  01800180          DCW      0x0180,0x0180
00114c  01800180          DCW      0x0180,0x0180
001150  01800180          DCW      0x0180,0x0180
001154  01800180          DCW      0x0180,0x0180
001158  01800180          DCW      0x0180,0x0180
00115c  01800180          DCW      0x0180,0x0180
001160  01800180          DCW      0x0180,0x0180
001164  01800180          DCW      0x0180,0x0180
001168  01800180          DCW      0x0180,0x0180
00116c  01800000          DCW      0x0180,0x0000
001170  00000060          DCW      0x0000,0x0060
001174  00c001c0          DCW      0x00c0,0x01c0
001178  01800180          DCW      0x0180,0x0180
00117c  01800180          DCW      0x0180,0x0180
001180  01800300          DCW      0x0180,0x0300
001184  03000600          DCW      0x0300,0x0600
001188  03000100          DCW      0x0300,0x0100
00118c  01800180          DCW      0x0180,0x0180
001190  01800180          DCW      0x0180,0x0180
001194  01800180          DCW      0x0180,0x0180
001198  00c00060          DCW      0x00c0,0x0060
00119c  00000000          DCW      0x0000,0x0000
0011a0  00000000          DCW      0x0000,0x0000
0011a4  00000000          DCW      0x0000,0x0000
0011a8  00000000          DCW      0x0000,0x0000
0011ac  00000000          DCW      0x0000,0x0000
0011b0  10f01ff8          DCW      0x10f0,0x1ff8
0011b4  0f080000          DCW      0x0f08,0x0000
0011b8  00000000          DCW      0x0000,0x0000
0011bc  00000000          DCW      0x0000,0x0000
0011c0  00000000          DCW      0x0000,0x0000
0011c4  00000000          DCW      0x0000,0x0000
0011c8  00000000          DCW      0x0000,0x0000
0011cc  00000000          DCW      0x0000,0x0000
                  ASCII12x12_Table
0011d0  00000000          DCW      0x0000,0x0000
0011d4  00000000          DCW      0x0000,0x0000
0011d8  00000000          DCW      0x0000,0x0000
0011dc  00000000          DCW      0x0000,0x0000
0011e0  00000000          DCW      0x0000,0x0000
0011e4  00000000          DCW      0x0000,0x0000
0011e8  00002000          DCW      0x0000,0x2000
0011ec  20002000          DCW      0x2000,0x2000
0011f0  20002000          DCW      0x2000,0x2000
0011f4  20002000          DCW      0x2000,0x2000
0011f8  00002000          DCW      0x0000,0x2000
0011fc  00000000          DCW      0x0000,0x0000
001200  00005000          DCW      0x0000,0x5000
001204  50005000          DCW      0x5000,0x5000
001208  00000000          DCW      0x0000,0x0000
00120c  00000000          DCW      0x0000,0x0000
001210  00000000          DCW      0x0000,0x0000
001214  00000000          DCW      0x0000,0x0000
001218  00000900          DCW      0x0000,0x0900
00121c  09001200          DCW      0x0900,0x1200
001220  7f001200          DCW      0x7f00,0x1200
001224  7f001200          DCW      0x7f00,0x1200
001228  24002400          DCW      0x2400,0x2400
00122c  00000000          DCW      0x0000,0x0000
001230  10003800          DCW      0x1000,0x3800
001234  54005000          DCW      0x5400,0x5000
001238  50003800          DCW      0x5000,0x3800
00123c  14005400          DCW      0x1400,0x5400
001240  54003800          DCW      0x5400,0x3800
001244  10000000          DCW      0x1000,0x0000
001248  00003080          DCW      0x0000,0x3080
00124c  49004900          DCW      0x4900,0x4900
001250  4a0032c0          DCW      0x4a00,0x32c0
001254  05200920          DCW      0x0520,0x0920
001258  092010c0          DCW      0x0920,0x10c0
00125c  00000000          DCW      0x0000,0x0000
001260  00000c00          DCW      0x0000,0x0c00
001264  12001200          DCW      0x1200,0x1200
001268  14001800          DCW      0x1400,0x1800
00126c  25002300          DCW      0x2500,0x2300
001270  23001d80          DCW      0x2300,0x1d80
001274  00000000          DCW      0x0000,0x0000
001278  00004000          DCW      0x0000,0x4000
00127c  40004000          DCW      0x4000,0x4000
001280  00000000          DCW      0x0000,0x0000
001284  00000000          DCW      0x0000,0x0000
001288  00000000          DCW      0x0000,0x0000
00128c  00000000          DCW      0x0000,0x0000
001290  00000800          DCW      0x0000,0x0800
001294  10001000          DCW      0x1000,0x1000
001298  20002000          DCW      0x2000,0x2000
00129c  20002000          DCW      0x2000,0x2000
0012a0  20002000          DCW      0x2000,0x2000
0012a4  10001000          DCW      0x1000,0x1000
0012a8  00004000          DCW      0x0000,0x4000
0012ac  20002000          DCW      0x2000,0x2000
0012b0  10001000          DCW      0x1000,0x1000
0012b4  10001000          DCW      0x1000,0x1000
0012b8  10001000          DCW      0x1000,0x1000
0012bc  20002000          DCW      0x2000,0x2000
0012c0  00002000          DCW      0x0000,0x2000
0012c4  70002000          DCW      0x7000,0x2000
0012c8  50000000          DCW      0x5000,0x0000
0012cc  00000000          DCW      0x0000,0x0000
0012d0  00000000          DCW      0x0000,0x0000
0012d4  00000000          DCW      0x0000,0x0000
0012d8  00000000          DCW      0x0000,0x0000
0012dc  00000800          DCW      0x0000,0x0800
0012e0  08007f00          DCW      0x0800,0x7f00
0012e4  08000800          DCW      0x0800,0x0800
0012e8  00000000          DCW      0x0000,0x0000
0012ec  00000000          DCW      0x0000,0x0000
0012f0  00000000          DCW      0x0000,0x0000
0012f4  00000000          DCW      0x0000,0x0000
0012f8  00000000          DCW      0x0000,0x0000
0012fc  00000000          DCW      0x0000,0x0000
001300  00002000          DCW      0x0000,0x2000
001304  20004000          DCW      0x2000,0x4000
001308  00000000          DCW      0x0000,0x0000
00130c  00000000          DCW      0x0000,0x0000
001310  00000000          DCW      0x0000,0x0000
001314  70000000          DCW      0x7000,0x0000
001318  00000000          DCW      0x0000,0x0000
00131c  00000000          DCW      0x0000,0x0000
001320  00000000          DCW      0x0000,0x0000
001324  00000000          DCW      0x0000,0x0000
001328  00000000          DCW      0x0000,0x0000
00132c  00000000          DCW      0x0000,0x0000
001330  00002000          DCW      0x0000,0x2000
001334  00000000          DCW      0x0000,0x0000
001338  00001000          DCW      0x0000,0x1000
00133c  10001000          DCW      0x1000,0x1000
001340  20002000          DCW      0x2000,0x2000
001344  20002000          DCW      0x2000,0x2000
001348  40004000          DCW      0x4000,0x4000
00134c  00000000          DCW      0x0000,0x0000
001350  00001000          DCW      0x0000,0x1000
001354  28004400          DCW      0x2800,0x4400
001358  44004400          DCW      0x4400,0x4400
00135c  44004400          DCW      0x4400,0x4400
001360  28001000          DCW      0x2800,0x1000
001364  00000000          DCW      0x0000,0x0000
001368  00001000          DCW      0x0000,0x1000
00136c  30005000          DCW      0x3000,0x5000
001370  10001000          DCW      0x1000,0x1000
001374  10001000          DCW      0x1000,0x1000
001378  10001000          DCW      0x1000,0x1000
00137c  00000000          DCW      0x0000,0x0000
001380  00003000          DCW      0x0000,0x3000
001384  48004400          DCW      0x4800,0x4400
001388  04000800          DCW      0x0400,0x0800
00138c  10002000          DCW      0x1000,0x2000
001390  40007c00          DCW      0x4000,0x7c00
001394  00000000          DCW      0x0000,0x0000
001398  00003000          DCW      0x0000,0x3000
00139c  48000400          DCW      0x4800,0x0400
0013a0  08001000          DCW      0x0800,0x1000
0013a4  08004400          DCW      0x0800,0x4400
0013a8  48003000          DCW      0x4800,0x3000
0013ac  00000000          DCW      0x0000,0x0000
0013b0  00000800          DCW      0x0000,0x0800
0013b4  18001800          DCW      0x1800,0x1800
0013b8  28002800          DCW      0x2800,0x2800
0013bc  48007c00          DCW      0x4800,0x7c00
0013c0  08000800          DCW      0x0800,0x0800
0013c4  00000000          DCW      0x0000,0x0000
0013c8  00003c00          DCW      0x0000,0x3c00
0013cc  20004000          DCW      0x2000,0x4000
0013d0  70004800          DCW      0x7000,0x4800
0013d4  04004400          DCW      0x0400,0x4400
0013d8  48003000          DCW      0x4800,0x3000
0013dc  00000000          DCW      0x0000,0x0000
0013e0  00001800          DCW      0x0000,0x1800
0013e4  24004000          DCW      0x2400,0x4000
0013e8  50006800          DCW      0x5000,0x6800
0013ec  44004400          DCW      0x4400,0x4400
0013f0  28001000          DCW      0x2800,0x1000
0013f4  00000000          DCW      0x0000,0x0000
0013f8  00007c00          DCW      0x0000,0x7c00
0013fc  04000800          DCW      0x0400,0x0800
001400  10001000          DCW      0x1000,0x1000
001404  10002000          DCW      0x1000,0x2000
001408  20002000          DCW      0x2000,0x2000
00140c  00000000          DCW      0x0000,0x0000
001410  00001000          DCW      0x0000,0x1000
001414  28004400          DCW      0x2800,0x4400
001418  28001000          DCW      0x2800,0x1000
00141c  28004400          DCW      0x2800,0x4400
001420  28001000          DCW      0x2800,0x1000
001424  00000000          DCW      0x0000,0x0000
001428  00001000          DCW      0x0000,0x1000
00142c  28004400          DCW      0x2800,0x4400
001430  44002c00          DCW      0x4400,0x2c00
001434  14000400          DCW      0x1400,0x0400
001438  48003000          DCW      0x4800,0x3000
00143c  00000000          DCW      0x0000,0x0000
001440  00000000          DCW      0x0000,0x0000
001444  00002000          DCW      0x0000,0x2000
001448  00000000          DCW      0x0000,0x0000
00144c  00000000          DCW      0x0000,0x0000
001450  00002000          DCW      0x0000,0x2000
001454  00000000          DCW      0x0000,0x0000
001458  00000000          DCW      0x0000,0x0000
00145c  00002000          DCW      0x0000,0x2000
001460  00000000          DCW      0x0000,0x0000
001464  00000000          DCW      0x0000,0x0000
001468  00002000          DCW      0x0000,0x2000
00146c  20004000          DCW      0x2000,0x4000
001470  00000000          DCW      0x0000,0x0000
001474  04000800          DCW      0x0400,0x0800
001478  30004000          DCW      0x3000,0x4000
00147c  30000800          DCW      0x3000,0x0800
001480  04000000          DCW      0x0400,0x0000
001484  00000000          DCW      0x0000,0x0000
001488  00000000          DCW      0x0000,0x0000
00148c  00007c00          DCW      0x0000,0x7c00
001490  00000000          DCW      0x0000,0x0000
001494  7c000000          DCW      0x7c00,0x0000
001498  00000000          DCW      0x0000,0x0000
00149c  00000000          DCW      0x0000,0x0000
0014a0  00000000          DCW      0x0000,0x0000
0014a4  40002000          DCW      0x4000,0x2000
0014a8  18000400          DCW      0x1800,0x0400
0014ac  18002000          DCW      0x1800,0x2000
0014b0  40000000          DCW      0x4000,0x0000
0014b4  00000000          DCW      0x0000,0x0000
0014b8  00003800          DCW      0x0000,0x3800
0014bc  64004400          DCW      0x6400,0x4400
0014c0  04000800          DCW      0x0400,0x0800
0014c4  10001000          DCW      0x1000,0x1000
0014c8  00001000          DCW      0x0000,0x1000
0014cc  00000000          DCW      0x0000,0x0000
0014d0  00000f80          DCW      0x0000,0x0f80
0014d4  10402ea0          DCW      0x1040,0x2ea0
0014d8  51a05120          DCW      0x51a0,0x5120
0014dc  51205120          DCW      0x5120,0x5120
0014e0  53204dc0          DCW      0x5320,0x4dc0
0014e4  20201040          DCW      0x2020,0x1040
0014e8  00000800          DCW      0x0000,0x0800
0014ec  14001400          DCW      0x1400,0x1400
0014f0  14002200          DCW      0x1400,0x2200
0014f4  3e002200          DCW      0x3e00,0x2200
0014f8  41004100          DCW      0x4100,0x4100
0014fc  00000000          DCW      0x0000,0x0000
001500  00003c00          DCW      0x0000,0x3c00
001504  22002200          DCW      0x2200,0x2200
001508  22003c00          DCW      0x2200,0x3c00
00150c  22002200          DCW      0x2200,0x2200
001510  22003c00          DCW      0x2200,0x3c00
001514  00000000          DCW      0x0000,0x0000
001518  00000e00          DCW      0x0000,0x0e00
00151c  11002100          DCW      0x1100,0x2100
001520  20002000          DCW      0x2000,0x2000
001524  20002100          DCW      0x2000,0x2100
001528  11000e00          DCW      0x1100,0x0e00
00152c  00000000          DCW      0x0000,0x0000
001530  00003c00          DCW      0x0000,0x3c00
001534  22002100          DCW      0x2200,0x2100
001538  21002100          DCW      0x2100,0x2100
00153c  21002100          DCW      0x2100,0x2100
001540  22003c00          DCW      0x2200,0x3c00
001544  00000000          DCW      0x0000,0x0000
001548  00003e00          DCW      0x0000,0x3e00
00154c  20002000          DCW      0x2000,0x2000
001550  20003e00          DCW      0x2000,0x3e00
001554  20002000          DCW      0x2000,0x2000
001558  20003e00          DCW      0x2000,0x3e00
00155c  00000000          DCW      0x0000,0x0000
001560  00003e00          DCW      0x0000,0x3e00
001564  20002000          DCW      0x2000,0x2000
001568  20003c00          DCW      0x2000,0x3c00
00156c  20002000          DCW      0x2000,0x2000
001570  20002000          DCW      0x2000,0x2000
001574  00000000          DCW      0x0000,0x0000
001578  00000e00          DCW      0x0000,0x0e00
00157c  11002100          DCW      0x1100,0x2100
001580  20002700          DCW      0x2000,0x2700
001584  21002100          DCW      0x2100,0x2100
001588  11000e00          DCW      0x1100,0x0e00
00158c  00000000          DCW      0x0000,0x0000
001590  00002100          DCW      0x0000,0x2100
001594  21002100          DCW      0x2100,0x2100
001598  21003f00          DCW      0x2100,0x3f00
00159c  21002100          DCW      0x2100,0x2100
0015a0  21002100          DCW      0x2100,0x2100
0015a4  00000000          DCW      0x0000,0x0000
0015a8  00002000          DCW      0x0000,0x2000
0015ac  20002000          DCW      0x2000,0x2000
0015b0  20002000          DCW      0x2000,0x2000
0015b4  20002000          DCW      0x2000,0x2000
0015b8  20002000          DCW      0x2000,0x2000
0015bc  00000000          DCW      0x0000,0x0000
0015c0  00000800          DCW      0x0000,0x0800
0015c4  08000800          DCW      0x0800,0x0800
0015c8  08000800          DCW      0x0800,0x0800
0015cc  08004800          DCW      0x0800,0x4800
0015d0  48003000          DCW      0x4800,0x3000
0015d4  00000000          DCW      0x0000,0x0000
0015d8  00002200          DCW      0x0000,0x2200
0015dc  24002800          DCW      0x2400,0x2800
0015e0  28003800          DCW      0x2800,0x3800
0015e4  28002400          DCW      0x2800,0x2400
0015e8  24002200          DCW      0x2400,0x2200
0015ec  00000000          DCW      0x0000,0x0000
0015f0  00002000          DCW      0x0000,0x2000
0015f4  20002000          DCW      0x2000,0x2000
0015f8  20002000          DCW      0x2000,0x2000
0015fc  20002000          DCW      0x2000,0x2000
001600  20003e00          DCW      0x2000,0x3e00
001604  00000000          DCW      0x0000,0x0000
001608  00002080          DCW      0x0000,0x2080
00160c  31803180          DCW      0x3180,0x3180
001610  31802a80          DCW      0x3180,0x2a80
001614  2a802a80          DCW      0x2a80,0x2a80
001618  2a802480          DCW      0x2a80,0x2480
00161c  00000000          DCW      0x0000,0x0000
001620  00002100          DCW      0x0000,0x2100
001624  31003100          DCW      0x3100,0x3100
001628  29002900          DCW      0x2900,0x2900
00162c  25002300          DCW      0x2500,0x2300
001630  23002100          DCW      0x2300,0x2100
001634  00000000          DCW      0x0000,0x0000
001638  00000c00          DCW      0x0000,0x0c00
00163c  12002100          DCW      0x1200,0x2100
001640  21002100          DCW      0x2100,0x2100
001644  21002100          DCW      0x2100,0x2100
001648  12000c00          DCW      0x1200,0x0c00
00164c  00000000          DCW      0x0000,0x0000
001650  00003c00          DCW      0x0000,0x3c00
001654  22002200          DCW      0x2200,0x2200
001658  22003c00          DCW      0x2200,0x3c00
00165c  20002000          DCW      0x2000,0x2000
001660  20002000          DCW      0x2000,0x2000
001664  00000000          DCW      0x0000,0x0000
001668  00000c00          DCW      0x0000,0x0c00
00166c  12002100          DCW      0x1200,0x2100
001670  21002100          DCW      0x2100,0x2100
001674  21002100          DCW      0x2100,0x2100
001678  16000d00          DCW      0x1600,0x0d00
00167c  01000000          DCW      0x0100,0x0000
001680  00003e00          DCW      0x0000,0x3e00
001684  21002100          DCW      0x2100,0x2100
001688  21003e00          DCW      0x2100,0x3e00
00168c  24002200          DCW      0x2400,0x2200
001690  21002080          DCW      0x2100,0x2080
001694  00000000          DCW      0x0000,0x0000
001698  00001c00          DCW      0x0000,0x1c00
00169c  22002200          DCW      0x2200,0x2200
0016a0  20001c00          DCW      0x2000,0x1c00
0016a4  02002200          DCW      0x0200,0x2200
0016a8  22001c00          DCW      0x2200,0x1c00
0016ac  00000000          DCW      0x0000,0x0000
0016b0  00003e00          DCW      0x0000,0x3e00
0016b4  08000800          DCW      0x0800,0x0800
0016b8  08000800          DCW      0x0800,0x0800
0016bc  08000800          DCW      0x0800,0x0800
0016c0  08000800          DCW      0x0800,0x0800
0016c4  00000000          DCW      0x0000,0x0000
0016c8  00002100          DCW      0x0000,0x2100
0016cc  21002100          DCW      0x2100,0x2100
0016d0  21002100          DCW      0x2100,0x2100
0016d4  21002100          DCW      0x2100,0x2100
0016d8  12000c00          DCW      0x1200,0x0c00
0016dc  00000000          DCW      0x0000,0x0000
0016e0  00004100          DCW      0x0000,0x4100
0016e4  41002200          DCW      0x4100,0x2200
0016e8  22002200          DCW      0x2200,0x2200
0016ec  14001400          DCW      0x1400,0x1400
0016f0  14000800          DCW      0x1400,0x0800
0016f4  00000000          DCW      0x0000,0x0000
0016f8  00004440          DCW      0x0000,0x4440
0016fc  4a402a40          DCW      0x4a40,0x2a40
001700  2a802a80          DCW      0x2a80,0x2a80
001704  2a802a80          DCW      0x2a80,0x2a80
001708  2a801100          DCW      0x2a80,0x1100
00170c  00000000          DCW      0x0000,0x0000
001710  00004100          DCW      0x0000,0x4100
001714  22001400          DCW      0x2200,0x1400
001718  14000800          DCW      0x1400,0x0800
00171c  14001400          DCW      0x1400,0x1400
001720  22004100          DCW      0x2200,0x4100
001724  00000000          DCW      0x0000,0x0000
001728  00004100          DCW      0x0000,0x4100
00172c  22002200          DCW      0x2200,0x2200
001730  14000800          DCW      0x1400,0x0800
001734  08000800          DCW      0x0800,0x0800
001738  08000800          DCW      0x0800,0x0800
00173c  00000000          DCW      0x0000,0x0000
001740  00007e00          DCW      0x0000,0x7e00
001744  02000400          DCW      0x0200,0x0400
001748  08001000          DCW      0x0800,0x1000
00174c  10002000          DCW      0x1000,0x2000
001750  40007e00          DCW      0x4000,0x7e00
001754  00000000          DCW      0x0000,0x0000
001758  00003000          DCW      0x0000,0x3000
00175c  20002000          DCW      0x2000,0x2000
001760  20002000          DCW      0x2000,0x2000
001764  20002000          DCW      0x2000,0x2000
001768  20002000          DCW      0x2000,0x2000
00176c  20002000          DCW      0x2000,0x2000
001770  00004000          DCW      0x0000,0x4000
001774  40002000          DCW      0x4000,0x2000
001778  20002000          DCW      0x2000,0x2000
00177c  20002000          DCW      0x2000,0x2000
001780  10001000          DCW      0x1000,0x1000
001784  00000000          DCW      0x0000,0x0000
001788  00006000          DCW      0x0000,0x6000
00178c  20002000          DCW      0x2000,0x2000
001790  20002000          DCW      0x2000,0x2000
001794  20002000          DCW      0x2000,0x2000
001798  20002000          DCW      0x2000,0x2000
00179c  20002000          DCW      0x2000,0x2000
0017a0  00001000          DCW      0x0000,0x1000
0017a4  28002800          DCW      0x2800,0x2800
0017a8  28004400          DCW      0x2800,0x4400
0017ac  00000000          DCW      0x0000,0x0000
0017b0  00000000          DCW      0x0000,0x0000
0017b4  00000000          DCW      0x0000,0x0000
0017b8  00000000          DCW      0x0000,0x0000
0017bc  00000000          DCW      0x0000,0x0000
0017c0  00000000          DCW      0x0000,0x0000
0017c4  00000000          DCW      0x0000,0x0000
0017c8  00000000          DCW      0x0000,0x0000
0017cc  00007e00          DCW      0x0000,0x7e00
0017d0  40002000          DCW      0x4000,0x2000
0017d4  00000000          DCW      0x0000,0x0000
0017d8  00000000          DCW      0x0000,0x0000
0017dc  00000000          DCW      0x0000,0x0000
0017e0  00000000          DCW      0x0000,0x0000
0017e4  00000000          DCW      0x0000,0x0000
0017e8  00000000          DCW      0x0000,0x0000
0017ec  00003800          DCW      0x0000,0x3800
0017f0  44000400          DCW      0x4400,0x0400
0017f4  3c004400          DCW      0x3c00,0x4400
0017f8  44003c00          DCW      0x4400,0x3c00
0017fc  00000000          DCW      0x0000,0x0000
001800  00004000          DCW      0x0000,0x4000
001804  40005800          DCW      0x4000,0x5800
001808  64004400          DCW      0x6400,0x4400
00180c  44004400          DCW      0x4400,0x4400
001810  64005800          DCW      0x6400,0x5800
001814  00000000          DCW      0x0000,0x0000
001818  00000000          DCW      0x0000,0x0000
00181c  00003000          DCW      0x0000,0x3000
001820  48004000          DCW      0x4800,0x4000
001824  40004000          DCW      0x4000,0x4000
001828  48003000          DCW      0x4800,0x3000
00182c  00000000          DCW      0x0000,0x0000
001830  00000400          DCW      0x0000,0x0400
001834  04003400          DCW      0x0400,0x3400
001838  4c004400          DCW      0x4c00,0x4400
00183c  44004400          DCW      0x4400,0x4400
001840  4c003400          DCW      0x4c00,0x3400
001844  00000000          DCW      0x0000,0x0000
001848  00000000          DCW      0x0000,0x0000
00184c  00003800          DCW      0x0000,0x3800
001850  44004400          DCW      0x4400,0x4400
001854  7c004000          DCW      0x7c00,0x4000
001858  44003800          DCW      0x4400,0x3800
00185c  00000000          DCW      0x0000,0x0000
001860  00006000          DCW      0x0000,0x6000
001864  4000e000          DCW      0x4000,0xe000
001868  40004000          DCW      0x4000,0x4000
00186c  40004000          DCW      0x4000,0x4000
001870  40004000          DCW      0x4000,0x4000
001874  00000000          DCW      0x0000,0x0000
001878  00000000          DCW      0x0000,0x0000
00187c  00003400          DCW      0x0000,0x3400
001880  4c004400          DCW      0x4c00,0x4400
001884  44004400          DCW      0x4400,0x4400
001888  4c003400          DCW      0x4c00,0x3400
00188c  04004400          DCW      0x0400,0x4400
001890  00004000          DCW      0x0000,0x4000
001894  40005800          DCW      0x4000,0x5800
001898  64004400          DCW      0x6400,0x4400
00189c  44004400          DCW      0x4400,0x4400
0018a0  44004400          DCW      0x4400,0x4400
0018a4  00000000          DCW      0x0000,0x0000
0018a8  00004000          DCW      0x0000,0x4000
0018ac  00004000          DCW      0x0000,0x4000
0018b0  40004000          DCW      0x4000,0x4000
0018b4  40004000          DCW      0x4000,0x4000
0018b8  40004000          DCW      0x4000,0x4000
0018bc  00000000          DCW      0x0000,0x0000
0018c0  00004000          DCW      0x0000,0x4000
0018c4  00004000          DCW      0x0000,0x4000
0018c8  40004000          DCW      0x4000,0x4000
0018cc  40004000          DCW      0x4000,0x4000
0018d0  40004000          DCW      0x4000,0x4000
0018d4  40004000          DCW      0x4000,0x4000
0018d8  00004000          DCW      0x0000,0x4000
0018dc  40004800          DCW      0x4000,0x4800
0018e0  50006000          DCW      0x5000,0x6000
0018e4  50005000          DCW      0x5000,0x5000
0018e8  48004800          DCW      0x4800,0x4800
0018ec  00000000          DCW      0x0000,0x0000
0018f0  00004000          DCW      0x0000,0x4000
0018f4  40004000          DCW      0x4000,0x4000
0018f8  40004000          DCW      0x4000,0x4000
0018fc  40004000          DCW      0x4000,0x4000
001900  40004000          DCW      0x4000,0x4000
001904  00000000          DCW      0x0000,0x0000
001908  00000000          DCW      0x0000,0x0000
00190c  00005200          DCW      0x0000,0x5200
001910  6d004900          DCW      0x6d00,0x4900
001914  49004900          DCW      0x4900,0x4900
001918  49004900          DCW      0x4900,0x4900
00191c  00000000          DCW      0x0000,0x0000
001920  00000000          DCW      0x0000,0x0000
001924  00005800          DCW      0x0000,0x5800
001928  64004400          DCW      0x6400,0x4400
00192c  44004400          DCW      0x4400,0x4400
001930  44004400          DCW      0x4400,0x4400
001934  00000000          DCW      0x0000,0x0000
001938  00000000          DCW      0x0000,0x0000
00193c  00003800          DCW      0x0000,0x3800
001940  44004400          DCW      0x4400,0x4400
001944  44004400          DCW      0x4400,0x4400
001948  44003800          DCW      0x4400,0x3800
00194c  00000000          DCW      0x0000,0x0000
001950  00000000          DCW      0x0000,0x0000
001954  00005800          DCW      0x0000,0x5800
001958  64004400          DCW      0x6400,0x4400
00195c  44004400          DCW      0x4400,0x4400
001960  64005800          DCW      0x6400,0x5800
001964  40004000          DCW      0x4000,0x4000
001968  00000000          DCW      0x0000,0x0000
00196c  00003400          DCW      0x0000,0x3400
001970  4c004400          DCW      0x4c00,0x4400
001974  44004400          DCW      0x4400,0x4400
001978  4c003400          DCW      0x4c00,0x3400
00197c  04000400          DCW      0x0400,0x0400
001980  00000000          DCW      0x0000,0x0000
001984  00005000          DCW      0x0000,0x5000
001988  60004000          DCW      0x6000,0x4000
00198c  40004000          DCW      0x4000,0x4000
001990  40004000          DCW      0x4000,0x4000
001994  00000000          DCW      0x0000,0x0000
001998  00000000          DCW      0x0000,0x0000
00199c  00003000          DCW      0x0000,0x3000
0019a0  48004000          DCW      0x4800,0x4000
0019a4  30000800          DCW      0x3000,0x0800
0019a8  48003000          DCW      0x4800,0x3000
0019ac  00000000          DCW      0x0000,0x0000
0019b0  00004000          DCW      0x0000,0x4000
0019b4  4000e000          DCW      0x4000,0xe000
0019b8  40004000          DCW      0x4000,0x4000
0019bc  40004000          DCW      0x4000,0x4000
0019c0  40006000          DCW      0x4000,0x6000
0019c4  00000000          DCW      0x0000,0x0000
0019c8  00000000          DCW      0x0000,0x0000
0019cc  00004400          DCW      0x0000,0x4400
0019d0  44004400          DCW      0x4400,0x4400
0019d4  44004400          DCW      0x4400,0x4400
0019d8  4c003400          DCW      0x4c00,0x3400
0019dc  00000000          DCW      0x0000,0x0000
0019e0  00000000          DCW      0x0000,0x0000
0019e4  00004400          DCW      0x0000,0x4400
0019e8  44002800          DCW      0x4400,0x2800
0019ec  28002800          DCW      0x2800,0x2800
0019f0  28001000          DCW      0x2800,0x1000
0019f4  00000000          DCW      0x0000,0x0000
0019f8  00000000          DCW      0x0000,0x0000
0019fc  00004900          DCW      0x0000,0x4900
001a00  49005500          DCW      0x4900,0x5500
001a04  55005500          DCW      0x5500,0x5500
001a08  55002200          DCW      0x5500,0x2200
001a0c  00000000          DCW      0x0000,0x0000
001a10  00000000          DCW      0x0000,0x0000
001a14  00004400          DCW      0x0000,0x4400
001a18  28002800          DCW      0x2800,0x2800
001a1c  10002800          DCW      0x1000,0x2800
001a20  28004400          DCW      0x2800,0x4400
001a24  00000000          DCW      0x0000,0x0000
001a28  00000000          DCW      0x0000,0x0000
001a2c  00004400          DCW      0x0000,0x4400
001a30  44002800          DCW      0x4400,0x2800
001a34  28002800          DCW      0x2800,0x2800
001a38  10001000          DCW      0x1000,0x1000
001a3c  10001000          DCW      0x1000,0x1000
001a40  00000000          DCW      0x0000,0x0000
001a44  00007800          DCW      0x0000,0x7800
001a48  08001000          DCW      0x0800,0x1000
001a4c  20002000          DCW      0x2000,0x2000
001a50  40007800          DCW      0x4000,0x7800
001a54  00000000          DCW      0x0000,0x0000
001a58  00001000          DCW      0x0000,0x1000
001a5c  20002000          DCW      0x2000,0x2000
001a60  20002000          DCW      0x2000,0x2000
001a64  40002000          DCW      0x4000,0x2000
001a68  20002000          DCW      0x2000,0x2000
001a6c  20002000          DCW      0x2000,0x2000
001a70  00002000          DCW      0x0000,0x2000
001a74  20002000          DCW      0x2000,0x2000
001a78  20002000          DCW      0x2000,0x2000
001a7c  20002000          DCW      0x2000,0x2000
001a80  20002000          DCW      0x2000,0x2000
001a84  20002000          DCW      0x2000,0x2000
001a88  00004000          DCW      0x0000,0x4000
001a8c  20002000          DCW      0x2000,0x2000
001a90  20002000          DCW      0x2000,0x2000
001a94  10002000          DCW      0x1000,0x2000
001a98  20002000          DCW      0x2000,0x2000
001a9c  20002000          DCW      0x2000,0x2000
001aa0  00000000          DCW      0x0000,0x0000
001aa4  00000000          DCW      0x0000,0x0000
001aa8  74005800          DCW      0x7400,0x5800
001aac  00000000          DCW      0x0000,0x0000
001ab0  00000000          DCW      0x0000,0x0000
001ab4  00000000          DCW      0x0000,0x0000
001ab8  00000000          DCW      0x0000,0x0000
001abc  70005000          DCW      0x7000,0x5000
001ac0  50005000          DCW      0x5000,0x5000
001ac4  50005000          DCW      0x5000,0x5000
001ac8  50007000          DCW      0x5000,0x7000
001acc  00000000          DCW      0x0000,0x0000
                  ASCII8x12_Table
001ad0  00000000          DCW      0x0000,0x0000
001ad4  00000000          DCW      0x0000,0x0000
001ad8  00000000          DCW      0x0000,0x0000
001adc  00000000          DCW      0x0000,0x0000
001ae0  00000000          DCW      0x0000,0x0000
001ae4  00000000          DCW      0x0000,0x0000
001ae8  00000000          DCW      0x0000,0x0000
001aec  00000010          DCW      0x0000,0x0010
001af0  00100010          DCW      0x0010,0x0010
001af4  00100010          DCW      0x0010,0x0010
001af8  00100000          DCW      0x0010,0x0000
001afc  00100000          DCW      0x0010,0x0000
001b00  00000000          DCW      0x0000,0x0000
001b04  00000028          DCW      0x0000,0x0028
001b08  00280028          DCW      0x0028,0x0028
001b0c  00000000          DCW      0x0000,0x0000
001b10  00000000          DCW      0x0000,0x0000
001b14  00000000          DCW      0x0000,0x0000
001b18  00000000          DCW      0x0000,0x0000
001b1c  00000014          DCW      0x0000,0x0014
001b20  0014003e          DCW      0x0014,0x003e
001b24  00140028          DCW      0x0014,0x0028
001b28  007c0028          DCW      0x007c,0x0028
001b2c  00280000          DCW      0x0028,0x0000
001b30  00000000          DCW      0x0000,0x0000
001b34  00100038          DCW      0x0010,0x0038
001b38  00540050          DCW      0x0054,0x0050
001b3c  00380014          DCW      0x0038,0x0014
001b40  00140054          DCW      0x0014,0x0054
001b44  00380010          DCW      0x0038,0x0010
001b48  00000000          DCW      0x0000,0x0000
001b4c  00000044          DCW      0x0000,0x0044
001b50  00a800a8          DCW      0x00a8,0x00a8
001b54  00500014          DCW      0x0050,0x0014
001b58  001a002a          DCW      0x001a,0x002a
001b5c  00240000          DCW      0x0024,0x0000
001b60  00000000          DCW      0x0000,0x0000
001b64  00000020          DCW      0x0000,0x0020
001b68  00500050          DCW      0x0050,0x0050
001b6c  002000e8          DCW      0x0020,0x00e8
001b70  00980098          DCW      0x0098,0x0098
001b74  00600000          DCW      0x0060,0x0000
001b78  00000000          DCW      0x0000,0x0000
001b7c  00000080          DCW      0x0000,0x0080
001b80  00800080          DCW      0x0080,0x0080
001b84  00000000          DCW      0x0000,0x0000
001b88  00000000          DCW      0x0000,0x0000
001b8c  00000000          DCW      0x0000,0x0000
001b90  00000000          DCW      0x0000,0x0000
001b94  00000040          DCW      0x0000,0x0040
001b98  00800080          DCW      0x0080,0x0080
001b9c  00800080          DCW      0x0080,0x0080
001ba0  00800080          DCW      0x0080,0x0080
001ba4  00800080          DCW      0x0080,0x0080
001ba8  00000000          DCW      0x0000,0x0000
001bac  00000080          DCW      0x0000,0x0080
001bb0  00400040          DCW      0x0040,0x0040
001bb4  00400040          DCW      0x0040,0x0040
001bb8  00400040          DCW      0x0040,0x0040
001bbc  00400040          DCW      0x0040,0x0040
001bc0  00000000          DCW      0x0000,0x0000
001bc4  00000040          DCW      0x0000,0x0040
001bc8  00e00040          DCW      0x00e0,0x0040
001bcc  00a00000          DCW      0x00a0,0x0000
001bd0  00000000          DCW      0x0000,0x0000
001bd4  00000000          DCW      0x0000,0x0000
001bd8  00000000          DCW      0x0000,0x0000
001bdc  00000000          DCW      0x0000,0x0000
001be0  00000020          DCW      0x0000,0x0020
001be4  002000f8          DCW      0x0020,0x00f8
001be8  00200020          DCW      0x0020,0x0020
001bec  00000000          DCW      0x0000,0x0000
001bf0  00000000          DCW      0x0000,0x0000
001bf4  00000000          DCW      0x0000,0x0000
001bf8  00000000          DCW      0x0000,0x0000
001bfc  00000000          DCW      0x0000,0x0000
001c00  00000000          DCW      0x0000,0x0000
001c04  00400040          DCW      0x0040,0x0040
001c08  00000000          DCW      0x0000,0x0000
001c0c  00000000          DCW      0x0000,0x0000
001c10  00000000          DCW      0x0000,0x0000
001c14  00000000          DCW      0x0000,0x0000
001c18  00c00000          DCW      0x00c0,0x0000
001c1c  00000000          DCW      0x0000,0x0000
001c20  00000000          DCW      0x0000,0x0000
001c24  00000000          DCW      0x0000,0x0000
001c28  00000000          DCW      0x0000,0x0000
001c2c  00000000          DCW      0x0000,0x0000
001c30  00000000          DCW      0x0000,0x0000
001c34  00400000          DCW      0x0040,0x0000
001c38  00000000          DCW      0x0000,0x0000
001c3c  00000020          DCW      0x0000,0x0020
001c40  00200020          DCW      0x0020,0x0020
001c44  00400040          DCW      0x0040,0x0040
001c48  00800080          DCW      0x0080,0x0080
001c4c  00800000          DCW      0x0080,0x0000
001c50  00000000          DCW      0x0000,0x0000
001c54  00000060          DCW      0x0000,0x0060
001c58  00900090          DCW      0x0090,0x0090
001c5c  00900090          DCW      0x0090,0x0090
001c60  00900090          DCW      0x0090,0x0090
001c64  00600000          DCW      0x0060,0x0000
001c68  00000000          DCW      0x0000,0x0000
001c6c  00000020          DCW      0x0000,0x0020
001c70  006000a0          DCW      0x0060,0x00a0
001c74  00200020          DCW      0x0020,0x0020
001c78  00200020          DCW      0x0020,0x0020
001c7c  00200000          DCW      0x0020,0x0000
001c80  00000000          DCW      0x0000,0x0000
001c84  00000060          DCW      0x0000,0x0060
001c88  00900010          DCW      0x0090,0x0010
001c8c  00100020          DCW      0x0010,0x0020
001c90  00400080          DCW      0x0040,0x0080
001c94  00f00000          DCW      0x00f0,0x0000
001c98  00000000          DCW      0x0000,0x0000
001c9c  00000060          DCW      0x0000,0x0060
001ca0  00900010          DCW      0x0090,0x0010
001ca4  00600010          DCW      0x0060,0x0010
001ca8  00100090          DCW      0x0010,0x0090
001cac  00600000          DCW      0x0060,0x0000
001cb0  00000000          DCW      0x0000,0x0000
001cb4  00000010          DCW      0x0000,0x0010
001cb8  00300050          DCW      0x0030,0x0050
001cbc  00500090          DCW      0x0050,0x0090
001cc0  00f80010          DCW      0x00f8,0x0010
001cc4  00100000          DCW      0x0010,0x0000
001cc8  00000000          DCW      0x0000,0x0000
001ccc  00000070          DCW      0x0000,0x0070
001cd0  00400080          DCW      0x0040,0x0080
001cd4  00e00010          DCW      0x00e0,0x0010
001cd8  00100090          DCW      0x0010,0x0090
001cdc  00600000          DCW      0x0060,0x0000
001ce0  00000000          DCW      0x0000,0x0000
001ce4  00000060          DCW      0x0000,0x0060
001ce8  00900080          DCW      0x0090,0x0080
001cec  00a000d0          DCW      0x00a0,0x00d0
001cf0  00900090          DCW      0x0090,0x0090
001cf4  00600000          DCW      0x0060,0x0000
001cf8  00000000          DCW      0x0000,0x0000
001cfc  000000f0          DCW      0x0000,0x00f0
001d00  00100020          DCW      0x0010,0x0020
001d04  00200020          DCW      0x0020,0x0020
001d08  00400040          DCW      0x0040,0x0040
001d0c  00400000          DCW      0x0040,0x0000
001d10  00000000          DCW      0x0000,0x0000
001d14  00000060          DCW      0x0000,0x0060
001d18  00900090          DCW      0x0090,0x0090
001d1c  00600090          DCW      0x0060,0x0090
001d20  00900090          DCW      0x0090,0x0090
001d24  00600000          DCW      0x0060,0x0000
001d28  00000000          DCW      0x0000,0x0000
001d2c  00000060          DCW      0x0000,0x0060
001d30  00900090          DCW      0x0090,0x0090
001d34  00b00050          DCW      0x00b0,0x0050
001d38  00100090          DCW      0x0010,0x0090
001d3c  00600000          DCW      0x0060,0x0000
001d40  00000000          DCW      0x0000,0x0000
001d44  00000000          DCW      0x0000,0x0000
001d48  00000040          DCW      0x0000,0x0040
001d4c  00000000          DCW      0x0000,0x0000
001d50  00000000          DCW      0x0000,0x0000
001d54  00400000          DCW      0x0040,0x0000
001d58  00000000          DCW      0x0000,0x0000
001d5c  00000000          DCW      0x0000,0x0000
001d60  00000040          DCW      0x0000,0x0040
001d64  00000000          DCW      0x0000,0x0000
001d68  00000000          DCW      0x0000,0x0000
001d6c  00400040          DCW      0x0040,0x0040
001d70  00000000          DCW      0x0000,0x0000
001d74  00000000          DCW      0x0000,0x0000
001d78  00000010          DCW      0x0000,0x0010
001d7c  00600080          DCW      0x0060,0x0080
001d80  00600010          DCW      0x0060,0x0010
001d84  00000000          DCW      0x0000,0x0000
001d88  00000000          DCW      0x0000,0x0000
001d8c  00000000          DCW      0x0000,0x0000
001d90  00000000          DCW      0x0000,0x0000
001d94  00f00000          DCW      0x00f0,0x0000
001d98  00f00000          DCW      0x00f0,0x0000
001d9c  00000000          DCW      0x0000,0x0000
001da0  00000000          DCW      0x0000,0x0000
001da4  00000000          DCW      0x0000,0x0000
001da8  00000080          DCW      0x0000,0x0080
001dac  00600010          DCW      0x0060,0x0010
001db0  00600080          DCW      0x0060,0x0080
001db4  00000000          DCW      0x0000,0x0000
001db8  00000000          DCW      0x0000,0x0000
001dbc  00000060          DCW      0x0000,0x0060
001dc0  00900010          DCW      0x0090,0x0010
001dc4  00200040          DCW      0x0020,0x0040
001dc8  00400000          DCW      0x0040,0x0000
001dcc  00400000          DCW      0x0040,0x0000
001dd0  00000000          DCW      0x0000,0x0000
001dd4  0000001c          DCW      0x0000,0x001c
001dd8  0022005b          DCW      0x0022,0x005b
001ddc  00a500a5          DCW      0x00a5,0x00a5
001de0  00a500a5          DCW      0x00a5,0x00a5
001de4  009e0041          DCW      0x009e,0x0041
001de8  00000000          DCW      0x0000,0x0000
001dec  00000020          DCW      0x0000,0x0020
001df0  00500050          DCW      0x0050,0x0050
001df4  00500050          DCW      0x0050,0x0050
001df8  00700088          DCW      0x0070,0x0088
001dfc  00880000          DCW      0x0088,0x0000
001e00  00000000          DCW      0x0000,0x0000
001e04  000000f0          DCW      0x0000,0x00f0
001e08  00880088          DCW      0x0088,0x0088
001e0c  00f00088          DCW      0x00f0,0x0088
001e10  00880088          DCW      0x0088,0x0088
001e14  00f00000          DCW      0x00f0,0x0000
001e18  00000000          DCW      0x0000,0x0000
001e1c  00000038          DCW      0x0000,0x0038
001e20  00440084          DCW      0x0044,0x0084
001e24  00800080          DCW      0x0080,0x0080
001e28  00840044          DCW      0x0084,0x0044
001e2c  00380000          DCW      0x0038,0x0000
001e30  00000000          DCW      0x0000,0x0000
001e34  000000e0          DCW      0x0000,0x00e0
001e38  00900088          DCW      0x0090,0x0088
001e3c  00880088          DCW      0x0088,0x0088
001e40  00880090          DCW      0x0088,0x0090
001e44  00e00000          DCW      0x00e0,0x0000
001e48  00000000          DCW      0x0000,0x0000
001e4c  000000f8          DCW      0x0000,0x00f8
001e50  00800080          DCW      0x0080,0x0080
001e54  00f80080          DCW      0x00f8,0x0080
001e58  00800080          DCW      0x0080,0x0080
001e5c  00f80000          DCW      0x00f8,0x0000
001e60  00000000          DCW      0x0000,0x0000
001e64  00000078          DCW      0x0000,0x0078
001e68  00400040          DCW      0x0040,0x0040
001e6c  00700040          DCW      0x0070,0x0040
001e70  00400040          DCW      0x0040,0x0040
001e74  00400000          DCW      0x0040,0x0000
001e78  00000000          DCW      0x0000,0x0000
001e7c  00000038          DCW      0x0000,0x0038
001e80  00440084          DCW      0x0044,0x0084
001e84  0080009c          DCW      0x0080,0x009c
001e88  00840044          DCW      0x0084,0x0044
001e8c  00380000          DCW      0x0038,0x0000
001e90  00000000          DCW      0x0000,0x0000
001e94  00000088          DCW      0x0000,0x0088
001e98  00880088          DCW      0x0088,0x0088
001e9c  00f80088          DCW      0x00f8,0x0088
001ea0  00880088          DCW      0x0088,0x0088
001ea4  00880000          DCW      0x0088,0x0000
001ea8  00000000          DCW      0x0000,0x0000
001eac  00000080          DCW      0x0000,0x0080
001eb0  00800080          DCW      0x0080,0x0080
001eb4  00800080          DCW      0x0080,0x0080
001eb8  00800080          DCW      0x0080,0x0080
001ebc  00800000          DCW      0x0080,0x0000
001ec0  00000000          DCW      0x0000,0x0000
001ec4  00000010          DCW      0x0000,0x0010
001ec8  00100010          DCW      0x0010,0x0010
001ecc  00100010          DCW      0x0010,0x0010
001ed0  00900090          DCW      0x0090,0x0090
001ed4  00600000          DCW      0x0060,0x0000
001ed8  00000000          DCW      0x0000,0x0000
001edc  00000088          DCW      0x0000,0x0088
001ee0  009000a0          DCW      0x0090,0x00a0
001ee4  00e000a0          DCW      0x00e0,0x00a0
001ee8  00900090          DCW      0x0090,0x0090
001eec  00880000          DCW      0x0088,0x0000
001ef0  00000000          DCW      0x0000,0x0000
001ef4  00000080          DCW      0x0000,0x0080
001ef8  00800080          DCW      0x0080,0x0080
001efc  00800080          DCW      0x0080,0x0080
001f00  00800080          DCW      0x0080,0x0080
001f04  00f00000          DCW      0x00f0,0x0000
001f08  00000000          DCW      0x0000,0x0000
001f0c  00000082          DCW      0x0000,0x0082
001f10  00c600c6          DCW      0x00c6,0x00c6
001f14  00aa00aa          DCW      0x00aa,0x00aa
001f18  00aa00aa          DCW      0x00aa,0x00aa
001f1c  00920000          DCW      0x0092,0x0000
001f20  00000000          DCW      0x0000,0x0000
001f24  00000084          DCW      0x0000,0x0084
001f28  00c400a4          DCW      0x00c4,0x00a4
001f2c  00a40094          DCW      0x00a4,0x0094
001f30  0094008c          DCW      0x0094,0x008c
001f34  00840000          DCW      0x0084,0x0000
001f38  00000000          DCW      0x0000,0x0000
001f3c  00000030          DCW      0x0000,0x0030
001f40  00480084          DCW      0x0048,0x0084
001f44  00840084          DCW      0x0084,0x0084
001f48  00840048          DCW      0x0084,0x0048
001f4c  00300000          DCW      0x0030,0x0000
001f50  00000000          DCW      0x0000,0x0000
001f54  000000f0          DCW      0x0000,0x00f0
001f58  00880088          DCW      0x0088,0x0088
001f5c  008800f0          DCW      0x0088,0x00f0
001f60  00800080          DCW      0x0080,0x0080
001f64  00800000          DCW      0x0080,0x0000
001f68  00000000          DCW      0x0000,0x0000
001f6c  00000030          DCW      0x0000,0x0030
001f70  00480084          DCW      0x0048,0x0084
001f74  00840084          DCW      0x0084,0x0084
001f78  00840058          DCW      0x0084,0x0058
001f7c  00340004          DCW      0x0034,0x0004
001f80  00000000          DCW      0x0000,0x0000
001f84  00000078          DCW      0x0000,0x0078
001f88  00440044          DCW      0x0044,0x0044
001f8c  00780050          DCW      0x0078,0x0050
001f90  00480044          DCW      0x0048,0x0044
001f94  00420000          DCW      0x0042,0x0000
001f98  00000000          DCW      0x0000,0x0000
001f9c  00000070          DCW      0x0000,0x0070
001fa0  00880080          DCW      0x0088,0x0080
001fa4  00700008          DCW      0x0070,0x0008
001fa8  00880088          DCW      0x0088,0x0088
001fac  00700000          DCW      0x0070,0x0000
001fb0  00000000          DCW      0x0000,0x0000
001fb4  000000f8          DCW      0x0000,0x00f8
001fb8  00200020          DCW      0x0020,0x0020
001fbc  00200020          DCW      0x0020,0x0020
001fc0  00200020          DCW      0x0020,0x0020
001fc4  00200000          DCW      0x0020,0x0000
001fc8  00000000          DCW      0x0000,0x0000
001fcc  00000084          DCW      0x0000,0x0084
001fd0  00840084          DCW      0x0084,0x0084
001fd4  00840084          DCW      0x0084,0x0084
001fd8  00840048          DCW      0x0084,0x0048
001fdc  00300000          DCW      0x0030,0x0000
001fe0  00000000          DCW      0x0000,0x0000
001fe4  00000088          DCW      0x0000,0x0088
001fe8  00880050          DCW      0x0088,0x0050
001fec  00500050          DCW      0x0050,0x0050
001ff0  00500050          DCW      0x0050,0x0050
001ff4  00200000          DCW      0x0020,0x0000
001ff8  00000000          DCW      0x0000,0x0000
001ffc  00000092          DCW      0x0000,0x0092
002000  00aa00aa          DCW      0x00aa,0x00aa
002004  00aa00aa          DCW      0x00aa,0x00aa
002008  00aa00aa          DCW      0x00aa,0x00aa
00200c  00440000          DCW      0x0044,0x0000
002010  00000000          DCW      0x0000,0x0000
002014  00000084          DCW      0x0000,0x0084
002018  00480048          DCW      0x0048,0x0048
00201c  00300030          DCW      0x0030,0x0030
002020  00480048          DCW      0x0048,0x0048
002024  00840000          DCW      0x0084,0x0000
002028  00000000          DCW      0x0000,0x0000
00202c  00000088          DCW      0x0000,0x0088
002030  00500050          DCW      0x0050,0x0050
002034  00200020          DCW      0x0020,0x0020
002038  00200020          DCW      0x0020,0x0020
00203c  00200000          DCW      0x0020,0x0000
002040  00000000          DCW      0x0000,0x0000
002044  000000f8          DCW      0x0000,0x00f8
002048  00080010          DCW      0x0008,0x0010
00204c  00200020          DCW      0x0020,0x0020
002050  00400080          DCW      0x0040,0x0080
002054  00f80000          DCW      0x00f8,0x0000
002058  00000000          DCW      0x0000,0x0000
00205c  000000c0          DCW      0x0000,0x00c0
002060  00800080          DCW      0x0080,0x0080
002064  00800080          DCW      0x0080,0x0080
002068  00800080          DCW      0x0080,0x0080
00206c  00800080          DCW      0x0080,0x0080
002070  00000000          DCW      0x0000,0x0000
002074  00000080          DCW      0x0000,0x0080
002078  00800040          DCW      0x0080,0x0040
00207c  00400040          DCW      0x0040,0x0040
002080  00400020          DCW      0x0040,0x0020
002084  00200000          DCW      0x0020,0x0000
002088  00000000          DCW      0x0000,0x0000
00208c  000000c0          DCW      0x0000,0x00c0
002090  00400040          DCW      0x0040,0x0040
002094  00400040          DCW      0x0040,0x0040
002098  00400040          DCW      0x0040,0x0040
00209c  00400040          DCW      0x0040,0x0040
0020a0  00000000          DCW      0x0000,0x0000
0020a4  00000040          DCW      0x0000,0x0040
0020a8  00a000a0          DCW      0x00a0,0x00a0
0020ac  00a00000          DCW      0x00a0,0x0000
0020b0  00000000          DCW      0x0000,0x0000
0020b4  00000000          DCW      0x0000,0x0000
0020b8  00000000          DCW      0x0000,0x0000
0020bc  00000000          DCW      0x0000,0x0000
0020c0  00000000          DCW      0x0000,0x0000
0020c4  00000000          DCW      0x0000,0x0000
0020c8  00000000          DCW      0x0000,0x0000
0020cc  000000f8          DCW      0x0000,0x00f8
0020d0  00000000          DCW      0x0000,0x0000
0020d4  00000080          DCW      0x0000,0x0080
0020d8  00400000          DCW      0x0040,0x0000
0020dc  00000000          DCW      0x0000,0x0000
0020e0  00000000          DCW      0x0000,0x0000
0020e4  00000000          DCW      0x0000,0x0000
0020e8  00000000          DCW      0x0000,0x0000
0020ec  00000000          DCW      0x0000,0x0000
0020f0  000000e0          DCW      0x0000,0x00e0
0020f4  00100070          DCW      0x0010,0x0070
0020f8  00900090          DCW      0x0090,0x0090
0020fc  00700000          DCW      0x0070,0x0000
002100  00000000          DCW      0x0000,0x0000
002104  00000080          DCW      0x0000,0x0080
002108  008000a0          DCW      0x0080,0x00a0
00210c  00d00090          DCW      0x00d0,0x0090
002110  009000d0          DCW      0x0090,0x00d0
002114  00a00000          DCW      0x00a0,0x0000
002118  00000000          DCW      0x0000,0x0000
00211c  00000000          DCW      0x0000,0x0000
002120  00000060          DCW      0x0000,0x0060
002124  00900080          DCW      0x0090,0x0080
002128  00800090          DCW      0x0080,0x0090
00212c  00600000          DCW      0x0060,0x0000
002130  00000000          DCW      0x0000,0x0000
002134  00000010          DCW      0x0000,0x0010
002138  00100050          DCW      0x0010,0x0050
00213c  00b00090          DCW      0x00b0,0x0090
002140  009000b0          DCW      0x0090,0x00b0
002144  00500000          DCW      0x0050,0x0000
002148  00000000          DCW      0x0000,0x0000
00214c  00000000          DCW      0x0000,0x0000
002150  00000060          DCW      0x0000,0x0060
002154  009000f0          DCW      0x0090,0x00f0
002158  00800090          DCW      0x0080,0x0090
00215c  00600000          DCW      0x0060,0x0000
002160  00000000          DCW      0x0000,0x0000
002164  000000c0          DCW      0x0000,0x00c0
002168  008000c0          DCW      0x0080,0x00c0
00216c  00800080          DCW      0x0080,0x0080
002170  00800080          DCW      0x0080,0x0080
002174  00800000          DCW      0x0080,0x0000
002178  00000000          DCW      0x0000,0x0000
00217c  00000000          DCW      0x0000,0x0000
002180  00000050          DCW      0x0000,0x0050
002184  00b00090          DCW      0x00b0,0x0090
002188  009000b0          DCW      0x0090,0x00b0
00218c  00500010          DCW      0x0050,0x0010
002190  00000000          DCW      0x0000,0x0000
002194  00000080          DCW      0x0000,0x0080
002198  008000a0          DCW      0x0080,0x00a0
00219c  00d00090          DCW      0x00d0,0x0090
0021a0  00900090          DCW      0x0090,0x0090
0021a4  00900000          DCW      0x0090,0x0000
0021a8  00000000          DCW      0x0000,0x0000
0021ac  00000080          DCW      0x0000,0x0080
0021b0  00000080          DCW      0x0000,0x0080
0021b4  00800080          DCW      0x0080,0x0080
0021b8  00800080          DCW      0x0080,0x0080
0021bc  00800000          DCW      0x0080,0x0000
0021c0  00000000          DCW      0x0000,0x0000
0021c4  00000080          DCW      0x0000,0x0080
0021c8  00000080          DCW      0x0000,0x0080
0021cc  00800080          DCW      0x0080,0x0080
0021d0  00800080          DCW      0x0080,0x0080
0021d4  00800080          DCW      0x0080,0x0080
0021d8  00000000          DCW      0x0000,0x0000
0021dc  00000080          DCW      0x0000,0x0080
0021e0  00800090          DCW      0x0080,0x0090
0021e4  00a000c0          DCW      0x00a0,0x00c0
0021e8  00a00090          DCW      0x00a0,0x0090
0021ec  00900000          DCW      0x0090,0x0000
0021f0  00000000          DCW      0x0000,0x0000
0021f4  00000080          DCW      0x0000,0x0080
0021f8  00800080          DCW      0x0080,0x0080
0021fc  00800080          DCW      0x0080,0x0080
002200  00800080          DCW      0x0080,0x0080
002204  00800000          DCW      0x0080,0x0000
002208  00000000          DCW      0x0000,0x0000
00220c  00000000          DCW      0x0000,0x0000
002210  000000a6          DCW      0x0000,0x00a6
002214  00da0092          DCW      0x00da,0x0092
002218  00920092          DCW      0x0092,0x0092
00221c  00920000          DCW      0x0092,0x0000
002220  00000000          DCW      0x0000,0x0000
002224  00000000          DCW      0x0000,0x0000
002228  000000a0          DCW      0x0000,0x00a0
00222c  00d00090          DCW      0x00d0,0x0090
002230  00900090          DCW      0x0090,0x0090
002234  00900000          DCW      0x0090,0x0000
002238  00000000          DCW      0x0000,0x0000
00223c  00000000          DCW      0x0000,0x0000
002240  00000060          DCW      0x0000,0x0060
002244  00900090          DCW      0x0090,0x0090
002248  00900090          DCW      0x0090,0x0090
00224c  00600000          DCW      0x0060,0x0000
002250  00000000          DCW      0x0000,0x0000
002254  00000000          DCW      0x0000,0x0000
002258  000000a0          DCW      0x0000,0x00a0
00225c  00d00090          DCW      0x00d0,0x0090
002260  009000d0          DCW      0x0090,0x00d0
002264  00a00080          DCW      0x00a0,0x0080
002268  00000000          DCW      0x0000,0x0000
00226c  00000000          DCW      0x0000,0x0000
002270  00000050          DCW      0x0000,0x0050
002274  00b00090          DCW      0x00b0,0x0090
002278  009000b0          DCW      0x0090,0x00b0
00227c  00500010          DCW      0x0050,0x0010
002280  00000000          DCW      0x0000,0x0000
002284  00000000          DCW      0x0000,0x0000
002288  000000a0          DCW      0x0000,0x00a0
00228c  00c00080          DCW      0x00c0,0x0080
002290  00800080          DCW      0x0080,0x0080
002294  00800000          DCW      0x0080,0x0000
002298  00000000          DCW      0x0000,0x0000
00229c  00000000          DCW      0x0000,0x0000
0022a0  000000e0          DCW      0x0000,0x00e0
0022a4  00900040          DCW      0x0090,0x0040
0022a8  00200090          DCW      0x0020,0x0090
0022ac  00600000          DCW      0x0060,0x0000
0022b0  00000000          DCW      0x0000,0x0000
0022b4  00000080          DCW      0x0000,0x0080
0022b8  008000c0          DCW      0x0080,0x00c0
0022bc  00800080          DCW      0x0080,0x0080
0022c0  00800080          DCW      0x0080,0x0080
0022c4  00c00000          DCW      0x00c0,0x0000
0022c8  00000000          DCW      0x0000,0x0000
0022cc  00000000          DCW      0x0000,0x0000
0022d0  00000090          DCW      0x0000,0x0090
0022d4  00900090          DCW      0x0090,0x0090
0022d8  009000b0          DCW      0x0090,0x00b0
0022dc  00500000          DCW      0x0050,0x0000
0022e0  00000000          DCW      0x0000,0x0000
0022e4  00000000          DCW      0x0000,0x0000
0022e8  00000088          DCW      0x0000,0x0088
0022ec  00880050          DCW      0x0088,0x0050
0022f0  00500050          DCW      0x0050,0x0050
0022f4  00200000          DCW      0x0020,0x0000
0022f8  00000000          DCW      0x0000,0x0000
0022fc  00000000          DCW      0x0000,0x0000
002300  00000092          DCW      0x0000,0x0092
002304  00aa00aa          DCW      0x00aa,0x00aa
002308  00aa00aa          DCW      0x00aa,0x00aa
00230c  00440000          DCW      0x0044,0x0000
002310  00000000          DCW      0x0000,0x0000
002314  00000000          DCW      0x0000,0x0000
002318  00000088          DCW      0x0000,0x0088
00231c  00500020          DCW      0x0050,0x0020
002320  00200050          DCW      0x0020,0x0050
002324  00880000          DCW      0x0088,0x0000
002328  00000000          DCW      0x0000,0x0000
00232c  00000000          DCW      0x0000,0x0000
002330  00000088          DCW      0x0000,0x0088
002334  00500050          DCW      0x0050,0x0050
002338  00500020          DCW      0x0050,0x0020
00233c  00200020          DCW      0x0020,0x0020
002340  00000000          DCW      0x0000,0x0000
002344  00000000          DCW      0x0000,0x0000
002348  000000f0          DCW      0x0000,0x00f0
00234c  00100020          DCW      0x0010,0x0020
002350  00400080          DCW      0x0040,0x0080
002354  00f00000          DCW      0x00f0,0x0000
002358  00000000          DCW      0x0000,0x0000
00235c  000000c0          DCW      0x0000,0x00c0
002360  00800080          DCW      0x0080,0x0080
002364  00800000          DCW      0x0080,0x0000
002368  00800080          DCW      0x0080,0x0080
00236c  00800080          DCW      0x0080,0x0080
002370  00000000          DCW      0x0000,0x0000
002374  00000080          DCW      0x0000,0x0080
002378  00800080          DCW      0x0080,0x0080
00237c  00800080          DCW      0x0080,0x0080
002380  00800080          DCW      0x0080,0x0080
002384  00800080          DCW      0x0080,0x0080
002388  00000000          DCW      0x0000,0x0000
00238c  000000c0          DCW      0x0000,0x00c0
002390  00400040          DCW      0x0040,0x0040
002394  00400020          DCW      0x0040,0x0020
002398  00400040          DCW      0x0040,0x0040
00239c  00400040          DCW      0x0040,0x0040
0023a0  00000000          DCW      0x0000,0x0000
0023a4  00000000          DCW      0x0000,0x0000
0023a8  00000000          DCW      0x0000,0x0000
0023ac  00e800b0          DCW      0x00e8,0x00b0
0023b0  00000000          DCW      0x0000,0x0000
0023b4  00000000          DCW      0x0000,0x0000
0023b8  00000000          DCW      0x0000,0x0000
0023bc  00000000          DCW      0x0000,0x0000
0023c0  00e000a0          DCW      0x00e0,0x00a0
0023c4  00a000a0          DCW      0x00a0,0x00a0
0023c8  00a000a0          DCW      0x00a0,0x00a0
0023cc  00e00000          DCW      0x00e0,0x0000
                  ASCII8x8_Table
0023d0  00000000          DCW      0x0000,0x0000
0023d4  00000000          DCW      0x0000,0x0000
0023d8  00000000          DCW      0x0000,0x0000
0023dc  00000000          DCW      0x0000,0x0000
0023e0  00400040          DCW      0x0040,0x0040
0023e4  00400040          DCW      0x0040,0x0040
0023e8  00400040          DCW      0x0040,0x0040
0023ec  00000040          DCW      0x0000,0x0040
0023f0  00a000a0          DCW      0x00a0,0x00a0
0023f4  00a00000          DCW      0x00a0,0x0000
0023f8  00000000          DCW      0x0000,0x0000
0023fc  00000000          DCW      0x0000,0x0000
002400  00000024          DCW      0x0000,0x0024
002404  002400fe          DCW      0x0024,0x00fe
002408  004800fc          DCW      0x0048,0x00fc
00240c  00480048          DCW      0x0048,0x0048
002410  00380054          DCW      0x0038,0x0054
002414  00500038          DCW      0x0050,0x0038
002418  00140014          DCW      0x0014,0x0014
00241c  00540038          DCW      0x0054,0x0038
002420  004400a8          DCW      0x0044,0x00a8
002424  00a80050          DCW      0x00a8,0x0050
002428  0014001a          DCW      0x0014,0x001a
00242c  002a0024          DCW      0x002a,0x0024
002430  00100028          DCW      0x0010,0x0028
002434  00280010          DCW      0x0028,0x0010
002438  0074004c          DCW      0x0074,0x004c
00243c  004c0030          DCW      0x004c,0x0030
002440  00100010          DCW      0x0010,0x0010
002444  00100000          DCW      0x0010,0x0000
002448  00000000          DCW      0x0000,0x0000
00244c  00000000          DCW      0x0000,0x0000
002450  00080010          DCW      0x0008,0x0010
002454  00100010          DCW      0x0010,0x0010
002458  00100010          DCW      0x0010,0x0010
00245c  00100008          DCW      0x0010,0x0008
002460  00100008          DCW      0x0010,0x0008
002464  00080008          DCW      0x0008,0x0008
002468  00080008          DCW      0x0008,0x0008
00246c  00080010          DCW      0x0008,0x0010
002470  00000000          DCW      0x0000,0x0000
002474  00240018          DCW      0x0024,0x0018
002478  003c0018          DCW      0x003c,0x0018
00247c  00240000          DCW      0x0024,0x0000
002480  00000000          DCW      0x0000,0x0000
002484  00100010          DCW      0x0010,0x0010
002488  007c0010          DCW      0x007c,0x0010
00248c  00100000          DCW      0x0010,0x0000
002490  00000000          DCW      0x0000,0x0000
002494  00000000          DCW      0x0000,0x0000
002498  00000008          DCW      0x0000,0x0008
00249c  00080010          DCW      0x0008,0x0010
0024a0  00000000          DCW      0x0000,0x0000
0024a4  00000000          DCW      0x0000,0x0000
0024a8  003c0000          DCW      0x003c,0x0000
0024ac  00000000          DCW      0x0000,0x0000
0024b0  00000000          DCW      0x0000,0x0000
0024b4  00000000          DCW      0x0000,0x0000
0024b8  00000000          DCW      0x0000,0x0000
0024bc  00180018          DCW      0x0018,0x0018
0024c0  00080008          DCW      0x0008,0x0008
0024c4  00080010          DCW      0x0008,0x0010
0024c8  00100020          DCW      0x0010,0x0020
0024cc  00200020          DCW      0x0020,0x0020
0024d0  00180024          DCW      0x0018,0x0024
0024d4  00240024          DCW      0x0024,0x0024
0024d8  00240024          DCW      0x0024,0x0024
0024dc  00240018          DCW      0x0024,0x0018
0024e0  00080018          DCW      0x0008,0x0018
0024e4  00280008          DCW      0x0028,0x0008
0024e8  00080008          DCW      0x0008,0x0008
0024ec  00080008          DCW      0x0008,0x0008
0024f0  00380044          DCW      0x0038,0x0044
0024f4  00000004          DCW      0x0000,0x0004
0024f8  00080010          DCW      0x0008,0x0010
0024fc  0020007c          DCW      0x0020,0x007c
002500  00180024          DCW      0x0018,0x0024
002504  00040018          DCW      0x0004,0x0018
002508  00040004          DCW      0x0004,0x0004
00250c  00240018          DCW      0x0024,0x0018
002510  0004000c          DCW      0x0004,0x000c
002514  00140024          DCW      0x0014,0x0024
002518  0044007e          DCW      0x0044,0x007e
00251c  00040004          DCW      0x0004,0x0004
002520  003c0020          DCW      0x003c,0x0020
002524  00200038          DCW      0x0020,0x0038
002528  00040004          DCW      0x0004,0x0004
00252c  00240018          DCW      0x0024,0x0018
002530  00180024          DCW      0x0018,0x0024
002534  00200038          DCW      0x0020,0x0038
002538  00240024          DCW      0x0024,0x0024
00253c  00240018          DCW      0x0024,0x0018
002540  003c0004          DCW      0x003c,0x0004
002544  00080008          DCW      0x0008,0x0008
002548  00080010          DCW      0x0008,0x0010
00254c  00100010          DCW      0x0010,0x0010
002550  00180024          DCW      0x0018,0x0024
002554  00240018          DCW      0x0024,0x0018
002558  00240024          DCW      0x0024,0x0024
00255c  00240018          DCW      0x0024,0x0018
002560  00180024          DCW      0x0018,0x0024
002564  00240024          DCW      0x0024,0x0024
002568  001c0004          DCW      0x001c,0x0004
00256c  00240018          DCW      0x0024,0x0018
002570  00000000          DCW      0x0000,0x0000
002574  00100000          DCW      0x0010,0x0000
002578  00000010          DCW      0x0000,0x0010
00257c  00000000          DCW      0x0000,0x0000
002580  00000000          DCW      0x0000,0x0000
002584  00080000          DCW      0x0008,0x0000
002588  00000008          DCW      0x0000,0x0008
00258c  00100000          DCW      0x0010,0x0000
002590  00000000          DCW      0x0000,0x0000
002594  00040018          DCW      0x0004,0x0018
002598  00200018          DCW      0x0020,0x0018
00259c  00040000          DCW      0x0004,0x0000
0025a0  00000000          DCW      0x0000,0x0000
0025a4  0000003c          DCW      0x0000,0x003c
0025a8  0000003c          DCW      0x0000,0x003c
0025ac  00000000          DCW      0x0000,0x0000
0025b0  00000000          DCW      0x0000,0x0000
0025b4  00200018          DCW      0x0020,0x0018
0025b8  00040018          DCW      0x0004,0x0018
0025bc  00200000          DCW      0x0020,0x0000
0025c0  00180024          DCW      0x0018,0x0024
0025c4  00040008          DCW      0x0004,0x0008
0025c8  00100010          DCW      0x0010,0x0010
0025cc  00000010          DCW      0x0000,0x0010
0025d0  003c0042          DCW      0x003c,0x0042
0025d4  009900a5          DCW      0x0099,0x00a5
0025d8  00a5009d          DCW      0x00a5,0x009d
0025dc  00420038          DCW      0x0042,0x0038
0025e0  00380044          DCW      0x0038,0x0044
0025e4  00440044          DCW      0x0044,0x0044
0025e8  007c0044          DCW      0x007c,0x0044
0025ec  00440044          DCW      0x0044,0x0044
0025f0  00780044          DCW      0x0078,0x0044
0025f4  00440078          DCW      0x0044,0x0078
0025f8  00440044          DCW      0x0044,0x0044
0025fc  00440078          DCW      0x0044,0x0078
002600  001c0022          DCW      0x001c,0x0022
002604  00420040          DCW      0x0042,0x0040
002608  00400042          DCW      0x0040,0x0042
00260c  0022001c          DCW      0x0022,0x001c
002610  00700048          DCW      0x0070,0x0048
002614  00440044          DCW      0x0044,0x0044
002618  00440044          DCW      0x0044,0x0044
00261c  00480070          DCW      0x0048,0x0070
002620  007c0040          DCW      0x007c,0x0040
002624  0040007c          DCW      0x0040,0x007c
002628  00400040          DCW      0x0040,0x0040
00262c  0040007c          DCW      0x0040,0x007c
002630  003c0020          DCW      0x003c,0x0020
002634  00200038          DCW      0x0020,0x0038
002638  00200020          DCW      0x0020,0x0020
00263c  00200020          DCW      0x0020,0x0020
002640  001c0022          DCW      0x001c,0x0022
002644  00420040          DCW      0x0042,0x0040
002648  004e0042          DCW      0x004e,0x0042
00264c  0022001c          DCW      0x0022,0x001c
002650  00440044          DCW      0x0044,0x0044
002654  0044007c          DCW      0x0044,0x007c
002658  00440044          DCW      0x0044,0x0044
00265c  00440044          DCW      0x0044,0x0044
002660  00100010          DCW      0x0010,0x0010
002664  00100010          DCW      0x0010,0x0010
002668  00100010          DCW      0x0010,0x0010
00266c  00100010          DCW      0x0010,0x0010
002670  00040004          DCW      0x0004,0x0004
002674  00040004          DCW      0x0004,0x0004
002678  00040024          DCW      0x0004,0x0024
00267c  00240018          DCW      0x0024,0x0018
002680  00440048          DCW      0x0044,0x0048
002684  00500070          DCW      0x0050,0x0070
002688  00500048          DCW      0x0050,0x0048
00268c  00480044          DCW      0x0048,0x0044
002690  00200020          DCW      0x0020,0x0020
002694  00200020          DCW      0x0020,0x0020
002698  00200020          DCW      0x0020,0x0020
00269c  0020003c          DCW      0x0020,0x003c
0026a0  008200c6          DCW      0x0082,0x00c6
0026a4  00c600aa          DCW      0x00c6,0x00aa
0026a8  00aa00aa          DCW      0x00aa,0x00aa
0026ac  00aa0092          DCW      0x00aa,0x0092
0026b0  00420062          DCW      0x0042,0x0062
0026b4  00520052          DCW      0x0052,0x0052
0026b8  004a004a          DCW      0x004a,0x004a
0026bc  00460042          DCW      0x0046,0x0042
0026c0  00180024          DCW      0x0018,0x0024
0026c4  00420042          DCW      0x0042,0x0042
0026c8  00420042          DCW      0x0042,0x0042
0026cc  00240018          DCW      0x0024,0x0018
0026d0  00780044          DCW      0x0078,0x0044
0026d4  00440044          DCW      0x0044,0x0044
0026d8  00780040          DCW      0x0078,0x0040
0026dc  00400040          DCW      0x0040,0x0040
0026e0  00180024          DCW      0x0018,0x0024
0026e4  00420042          DCW      0x0042,0x0042
0026e8  00420042          DCW      0x0042,0x0042
0026ec  002c001a          DCW      0x002c,0x001a
0026f0  00780044          DCW      0x0078,0x0044
0026f4  00440078          DCW      0x0044,0x0078
0026f8  00500048          DCW      0x0050,0x0048
0026fc  00440042          DCW      0x0044,0x0042
002700  00380044          DCW      0x0038,0x0044
002704  00400038          DCW      0x0040,0x0038
002708  00040044          DCW      0x0004,0x0044
00270c  00440038          DCW      0x0044,0x0038
002710  007c0010          DCW      0x007c,0x0010
002714  00100010          DCW      0x0010,0x0010
002718  00100010          DCW      0x0010,0x0010
00271c  00100010          DCW      0x0010,0x0010
002720  00420042          DCW      0x0042,0x0042
002724  00420042          DCW      0x0042,0x0042
002728  00420042          DCW      0x0042,0x0042
00272c  00240018          DCW      0x0024,0x0018
002730  00440044          DCW      0x0044,0x0044
002734  00280028          DCW      0x0028,0x0028
002738  00280028          DCW      0x0028,0x0028
00273c  00280010          DCW      0x0028,0x0010
002740  009200aa          DCW      0x0092,0x00aa
002744  00aa00aa          DCW      0x00aa,0x00aa
002748  00aa00aa          DCW      0x00aa,0x00aa
00274c  00aa0044          DCW      0x00aa,0x0044
002750  00420024          DCW      0x0042,0x0024
002754  00240018          DCW      0x0024,0x0018
002758  00180024          DCW      0x0018,0x0024
00275c  00240042          DCW      0x0024,0x0042
002760  00440028          DCW      0x0044,0x0028
002764  00280010          DCW      0x0028,0x0010
002768  00100010          DCW      0x0010,0x0010
00276c  00100010          DCW      0x0010,0x0010
002770  007c0004          DCW      0x007c,0x0004
002774  00080010          DCW      0x0008,0x0010
002778  00100020          DCW      0x0010,0x0020
00277c  0040007c          DCW      0x0040,0x007c
002780  001c0010          DCW      0x001c,0x0010
002784  00100010          DCW      0x0010,0x0010
002788  00100010          DCW      0x0010,0x0010
00278c  0010001c          DCW      0x0010,0x001c
002790  00100010          DCW      0x0010,0x0010
002794  00080008          DCW      0x0008,0x0008
002798  00080008          DCW      0x0008,0x0008
00279c  00040004          DCW      0x0004,0x0004
0027a0  001c0004          DCW      0x001c,0x0004
0027a4  00040004          DCW      0x0004,0x0004
0027a8  00040004          DCW      0x0004,0x0004
0027ac  0004001c          DCW      0x0004,0x001c
0027b0  00100028          DCW      0x0010,0x0028
0027b4  00440000          DCW      0x0044,0x0000
0027b8  00000000          DCW      0x0000,0x0000
0027bc  00000000          DCW      0x0000,0x0000
0027c0  00000000          DCW      0x0000,0x0000
0027c4  00000000          DCW      0x0000,0x0000
0027c8  00000000          DCW      0x0000,0x0000
0027cc  00000000          DCW      0x0000,0x0000
0027d0  00200010          DCW      0x0020,0x0010
0027d4  00100000          DCW      0x0010,0x0000
0027d8  00000000          DCW      0x0000,0x0000
0027dc  00000000          DCW      0x0000,0x0000
0027e0  00000000          DCW      0x0000,0x0000
0027e4  00180004          DCW      0x0018,0x0004
0027e8  001c0024          DCW      0x001c,0x0024
0027ec  0024001c          DCW      0x0024,0x001c
0027f0  00200020          DCW      0x0020,0x0020
0027f4  00280034          DCW      0x0028,0x0034
0027f8  00240024          DCW      0x0024,0x0024
0027fc  00340028          DCW      0x0034,0x0028
002800  00000000          DCW      0x0000,0x0000
002804  00180024          DCW      0x0018,0x0024
002808  00200020          DCW      0x0020,0x0020
00280c  00240018          DCW      0x0024,0x0018
002810  00040004          DCW      0x0004,0x0004
002814  0014002c          DCW      0x0014,0x002c
002818  00240024          DCW      0x0024,0x0024
00281c  002c0014          DCW      0x002c,0x0014
002820  00000000          DCW      0x0000,0x0000
002824  00180024          DCW      0x0018,0x0024
002828  003c0020          DCW      0x003c,0x0020
00282c  00240018          DCW      0x0024,0x0018
002830  00000018          DCW      0x0000,0x0018
002834  00100010          DCW      0x0010,0x0010
002838  00180010          DCW      0x0018,0x0010
00283c  00100010          DCW      0x0010,0x0010
002840  00000018          DCW      0x0000,0x0018
002844  00240024          DCW      0x0024,0x0024
002848  00180004          DCW      0x0018,0x0004
00284c  00240018          DCW      0x0024,0x0018
002850  00200020          DCW      0x0020,0x0020
002854  00280034          DCW      0x0028,0x0034
002858  00240024          DCW      0x0024,0x0024
00285c  00240024          DCW      0x0024,0x0024
002860  00100000          DCW      0x0010,0x0000
002864  00100010          DCW      0x0010,0x0010
002868  00100010          DCW      0x0010,0x0010
00286c  00100010          DCW      0x0010,0x0010
002870  00080000          DCW      0x0008,0x0000
002874  00080008          DCW      0x0008,0x0008
002878  00080008          DCW      0x0008,0x0008
00287c  00280010          DCW      0x0028,0x0010
002880  00200020          DCW      0x0020,0x0020
002884  00240028          DCW      0x0024,0x0028
002888  00300028          DCW      0x0030,0x0028
00288c  00240024          DCW      0x0024,0x0024
002890  00100010          DCW      0x0010,0x0010
002894  00100010          DCW      0x0010,0x0010
002898  00100010          DCW      0x0010,0x0010
00289c  00100010          DCW      0x0010,0x0010
0028a0  00000000          DCW      0x0000,0x0000
0028a4  00a600da          DCW      0x00a6,0x00da
0028a8  00920092          DCW      0x0092,0x0092
0028ac  00920092          DCW      0x0092,0x0092
0028b0  00000000          DCW      0x0000,0x0000
0028b4  00280034          DCW      0x0028,0x0034
0028b8  00240024          DCW      0x0024,0x0024
0028bc  00240024          DCW      0x0024,0x0024
0028c0  00000000          DCW      0x0000,0x0000
0028c4  00180024          DCW      0x0018,0x0024
0028c8  00240024          DCW      0x0024,0x0024
0028cc  00240018          DCW      0x0024,0x0018
0028d0  00000028          DCW      0x0000,0x0028
0028d4  00340024          DCW      0x0034,0x0024
0028d8  00380020          DCW      0x0038,0x0020
0028dc  00200020          DCW      0x0020,0x0020
0028e0  00000014          DCW      0x0000,0x0014
0028e4  002c0024          DCW      0x002c,0x0024
0028e8  001c0004          DCW      0x001c,0x0004
0028ec  00040004          DCW      0x0004,0x0004
0028f0  00000000          DCW      0x0000,0x0000
0028f4  002c0030          DCW      0x002c,0x0030
0028f8  00200020          DCW      0x0020,0x0020
0028fc  00200020          DCW      0x0020,0x0020
002900  00000000          DCW      0x0000,0x0000
002904  00180024          DCW      0x0018,0x0024
002908  00100008          DCW      0x0010,0x0008
00290c  00240018          DCW      0x0024,0x0018
002910  00000010          DCW      0x0000,0x0010
002914  00380010          DCW      0x0038,0x0010
002918  00100010          DCW      0x0010,0x0010
00291c  00100018          DCW      0x0010,0x0018
002920  00000000          DCW      0x0000,0x0000
002924  00240024          DCW      0x0024,0x0024
002928  00240024          DCW      0x0024,0x0024
00292c  002c0014          DCW      0x002c,0x0014
002930  00000000          DCW      0x0000,0x0000
002934  00440044          DCW      0x0044,0x0044
002938  00280028          DCW      0x0028,0x0028
00293c  00280010          DCW      0x0028,0x0010
002940  00000000          DCW      0x0000,0x0000
002944  009200aa          DCW      0x0092,0x00aa
002948  00aa00aa          DCW      0x00aa,0x00aa
00294c  00aa0044          DCW      0x00aa,0x0044
002950  00000000          DCW      0x0000,0x0000
002954  00440028          DCW      0x0044,0x0028
002958  00100010          DCW      0x0010,0x0010
00295c  00280044          DCW      0x0028,0x0044
002960  00000028          DCW      0x0000,0x0028
002964  00280028          DCW      0x0028,0x0028
002968  00100010          DCW      0x0010,0x0010
00296c  00100010          DCW      0x0010,0x0010
002970  00000000          DCW      0x0000,0x0000
002974  003c0004          DCW      0x003c,0x0004
002978  00080010          DCW      0x0008,0x0010
00297c  0020003c          DCW      0x0020,0x003c
002980  00000008          DCW      0x0000,0x0008
002984  00100010          DCW      0x0010,0x0010
002988  00200010          DCW      0x0020,0x0010
00298c  00100008          DCW      0x0010,0x0008
002990  00100010          DCW      0x0010,0x0010
002994  00100010          DCW      0x0010,0x0010
002998  00100010          DCW      0x0010,0x0010
00299c  00100010          DCW      0x0010,0x0010
0029a0  00000010          DCW      0x0000,0x0010
0029a4  00080008          DCW      0x0008,0x0008
0029a8  00040008          DCW      0x0004,0x0008
0029ac  00080010          DCW      0x0008,0x0010
0029b0  00000000          DCW      0x0000,0x0000
0029b4  00000060          DCW      0x0000,0x0060
0029b8  0092000c          DCW      0x0092,0x000c
0029bc  00000000          DCW      0x0000,0x0000
0029c0  00ff00ff          DCW      0x00ff,0x00ff
0029c4  00ff00ff          DCW      0x00ff,0x00ff
0029c8  00ff00ff          DCW      0x00ff,0x00ff
0029cc  00ff00ff          DCW      0x00ff,0x00ff

                          AREA ||.data||, DATA, ALIGN=2

                  Font16x24
                          DCD      ASCII16x24_Table
000004  00100018          DCW      0x0010,0x0018
                  Font12x12
                          DCD      ASCII12x12_Table
00000c  000c000c          DCW      0x000c,0x000c
                  Font8x12
                          DCD      ASCII8x12_Table
000014  0008000c          DCW      0x0008,0x000c
                  Font8x8
                          DCD      ASCII8x8_Table
00001c  00080008          DCW      0x0008,0x0008
                  LCD_Currentfonts
                          DCD      0x00000000
                  TextColor
000024  0000              DCW      0x0000
                  BackColor
000026  ffff              DCW      0xffff

;*** Start embedded assembler ***

#line 1 "..\\..\\libraries\\STM32F4-Discovery\\stm32f4_discovery_lcd.c"
	AREA ||.emb_text||, CODE
	THUMB
	EXPORT |__asm___23_stm32f4_discovery_lcd_c_09e7592f____REV16|
#line 114 "..\\..\\libraries\\CMSIS\\Include\\core_cmInstr.h"
|__asm___23_stm32f4_discovery_lcd_c_09e7592f____REV16| PROC
#line 115

 rev16 r0, r0
 bx lr
	ENDP
	AREA ||.emb_text||, CODE
	THUMB
	EXPORT |__asm___23_stm32f4_discovery_lcd_c_09e7592f____REVSH|
#line 128
|__asm___23_stm32f4_discovery_lcd_c_09e7592f____REVSH| PROC
#line 129

 revsh r0, r0
 bx lr
	ENDP

;*** End   embedded assembler ***
